Archive member included to satisfy reference by file (symbol)

/opt/blocksds/external/nflib/lib/libnflib.a(nf_basic.c.o)
                              build/test_repository/source/main.c.o (NF_SetRootFolder)
/opt/blocksds/external/nflib/lib/libnflib.a(nf_collision.c.o)
                              build/test_repository/source/main.c.o (NF_InitCmapBuffers)
/opt/blocksds/external/nflib/lib/libnflib.a(nf_text.c.o)
                              build/test_repository/source/main.c.o (NF_InitTextSys)
/opt/blocksds/external/nflib/lib/libnflib.a(nf_tiledbg.c.o)
                              build/test_repository/source/main.c.o (NF_InitTiledBgBuffers)
/opt/blocksds/external/nflib/lib/libnflib.a(nf_2d.c.o)
                              build/test_repository/source/main.c.o (NF_Set2D)
/opt/blocksds/external/nflib/lib/libnflib.a(nf_sprite256.c.o)
                              build/test_repository/source/main.c.o (NF_InitSpriteBuffers)
/opt/blocksds/core/libs/libnds/lib/libnds9.a(IntrWait.s.o)
                              build/test_repository/source/main.c.o (swiWaitForVBlank)
/opt/blocksds/core/libs/libnds/lib/libnds9.a(mpu_setup.s.o)
                              /opt/blocksds/core/sys/crts/ds_arm9_crt0.o (__libnds_mpu_setup)
/opt/blocksds/core/libs/libnds/lib/libnds9.a(cp15.s.o)
                              /opt/blocksds/core/libs/libnds/lib/libnds9.a(mpu_setup.s.o) (CP15_FlushICache)
/opt/blocksds/core/libs/libnds/lib/libnds9.a(dma.s.o)
                              /opt/blocksds/external/nflib/lib/libnflib.a(nf_basic.c.o) (dmaSetParams)
/opt/blocksds/core/libs/libnds/lib/libnds9.a(memset.s.o)
                              /opt/blocksds/external/nflib/lib/libnflib.a(nf_text.c.o) (memset)
/opt/blocksds/core/libs/libnds/lib/libnds9.a(memcpy.s.o)
                              /opt/blocksds/external/nflib/lib/libnflib.a(nf_basic.c.o) (memcpy)
/opt/blocksds/core/libs/libnds/lib/libnds9.a(console.c.o)
                              build/test_repository/source/main.c.o (consoleDemoInit)
/opt/blocksds/core/libs/libnds/lib/libnds9.a(background.c.o)
                              /opt/blocksds/core/libs/libnds/lib/libnds9.a(console.c.o) (bgState)
/opt/blocksds/core/libs/libnds/lib/libnds9.a(sprite.c.o)
                              /opt/blocksds/external/nflib/lib/libnflib.a(nf_sprite256.c.o) (oamInit)
/opt/blocksds/core/libs/libnds/lib/libnds9.a(video.c.o)
                              /opt/blocksds/external/nflib/lib/libnflib.a(nf_basic.c.o) (setBrightness)
/opt/blocksds/core/libs/libnds/lib/libnds9.a(cache.c.o)
                              /opt/blocksds/external/nflib/lib/libnflib.a(nf_basic.c.o) (CP15_CleanAndFlushDCacheRange)
/opt/blocksds/core/libs/libnds/lib/libnds9.a(initSystem.c.o)
                              /opt/blocksds/core/sys/crts/ds_arm9_crt0.o (initSystem)
/opt/blocksds/core/libs/libnds/lib/libnds9.a(keys.c.o)
                              build/test_repository/source/main.c.o (scanKeys)
/opt/blocksds/core/libs/libnds/lib/libnds9.a(system.c.o)
                              /opt/blocksds/core/libs/libnds/lib/libnds9.a(initSystem.c.o) (systemValueHandler)
/opt/blocksds/core/libs/libnds/lib/libnds9.a(securearea.c.o)
                              /opt/blocksds/core/sys/crts/ds_arm9_crt0.o (__secure_area__)
/opt/blocksds/core/libs/libnds/lib/libnds9.a(exceptions.c.o)
                              /opt/blocksds/core/libs/libnds/lib/libnds9.a(system.c.o) (exceptionStatePrint)
/opt/blocksds/core/libs/libnds/lib/libnds9.a(chdir.c.o)
                              /opt/blocksds/external/nflib/lib/libnflib.a(nf_basic.c.o) (chdir)
/opt/blocksds/core/libs/libnds/lib/libnds9.a(nitrofs.c.o)
                              /opt/blocksds/core/libs/libnds/lib/libnds9.a(chdir.c.o) (nitrofs_getcwd)
/opt/blocksds/core/libs/libnds/lib/libnds9.a(iob.c.o)
                              /opt/blocksds/core/libs/libnds/lib/libnds9.a(console.c.o) (stderr)
/opt/blocksds/core/libs/libnds/lib/libnds9.a(fatfs.c.o)
                              /opt/blocksds/core/libs/libnds/lib/libnds9.a(chdir.c.o) (fatfs_error_to_posix)
/opt/blocksds/core/libs/libnds/lib/libnds9.a(crt0_argv.c.o)
                              /opt/blocksds/core/sys/crts/ds_arm9_crt0.o (build_argv)
/opt/blocksds/core/libs/libnds/lib/libnds9.a(filesystem.c.o)
                              /opt/blocksds/external/nflib/lib/libnflib.a(nf_basic.c.o) (access)
/opt/blocksds/core/libs/libnds/lib/libnds9.a(cache.c.o)
                              /opt/blocksds/core/libs/libnds/lib/libnds9.a(nitrofs.c.o) (cache_initialized)
/opt/blocksds/core/libs/libnds/lib/libnds9.a(debugprint.c.o)
                              /opt/blocksds/core/libs/libnds/lib/libnds9.a(console.c.o) (nocash_putc_buffered)
/opt/blocksds/core/libs/libnds/lib/libnds9.a(threads.c.o)
                              /opt/blocksds/core/sys/crts/ds_arm9_crt0.o (init_tls)
/opt/blocksds/core/libs/libnds/lib/libnds9.a(interrupts.c.o)
                              /opt/blocksds/core/libs/libnds/lib/libnds9.a(initSystem.c.o) (irqInit)
/opt/blocksds/core/libs/libnds/lib/libnds9.a(exceptions.c.o)
                              /opt/blocksds/core/libs/libnds/lib/libnds9.a(exceptions.c.o) (setExceptionHandler)
/opt/blocksds/core/libs/libnds/lib/libnds9.a(coroutine.c.o)
                              /opt/blocksds/core/libs/libnds/lib/libnds9.a(threads.c.o) (__ndsabi_coro_make_noctx)
/opt/blocksds/core/libs/libnds/lib/libnds9.a(card.c.o)
                              /opt/blocksds/core/libs/libnds/lib/libnds9.a(nitrofs.c.o) (cardRead)
/opt/blocksds/core/libs/libnds/lib/libnds9.a(exit.c.o)
                              /opt/blocksds/core/sys/crts/ds_arm9_crt0.o (__libnds_exit)
/opt/blocksds/core/libs/libnds/lib/libnds9.a(locks.c.o)
                              /opt/blocksds/core/libs/libnds/lib/libnds9.a(threads.c.o) (__retarget_lock_acquire)
/opt/blocksds/core/libs/libnds/lib/libnds9.a(sbrk.c.o)
                              /opt/blocksds/core/sys/crts/ds_arm9_crt0.o (fake_heap_start)
/opt/blocksds/core/libs/libnds/lib/libnds9.a(fifosystem.c.o)
                              /opt/blocksds/core/libs/libnds/lib/libnds9.a(initSystem.c.o) (fifoSetValue32Handler)
/opt/blocksds/core/libs/libnds/lib/libnds9.a(ff.c.o)
                              /opt/blocksds/core/libs/libnds/lib/libnds9.a(fatfs.c.o) (f_mount)
/opt/blocksds/core/libs/libnds/lib/libnds9.a(ffunicode.c.o)
                              /opt/blocksds/core/libs/libnds/lib/libnds9.a(ff.c.o) (ff_uni2oem)
/opt/blocksds/core/libs/libnds/lib/libnds9.a(default_font.png.o)
                              /opt/blocksds/core/libs/libnds/lib/libnds9.a(console.c.o) (default_fontTiles)
/opt/blocksds/core/libs/libnds/lib/libnds9.a(cpu_clock.s.o)
                              /opt/blocksds/core/libs/libnds/lib/libnds9.a(initSystem.c.o) (setCpuClock)
/opt/blocksds/core/libs/libnds/lib/libnds9.a(debugprint.s.o)
                              /opt/blocksds/core/libs/libnds/lib/libnds9.a(debugprint.c.o) (nocashWrite)
/opt/blocksds/core/libs/libnds/lib/libnds9.a(aeabi_read_tp.s.o)
                              /opt/blocksds/core/libs/libnds/lib/libnds9.a(chdir.c.o) (__aeabi_read_tp)
/opt/blocksds/core/libs/libnds/lib/libnds9.a(interruptDispatcher.s.o)
                              /opt/blocksds/core/libs/libnds/lib/libnds9.a(interrupts.c.o) (IntrMain)
/opt/blocksds/core/libs/libnds/lib/libnds9.a(cpu.s.o)
                              /opt/blocksds/core/libs/libnds/lib/libnds9.a(exceptions.c.o) (getCPSR)
/opt/blocksds/core/libs/libnds/lib/libnds9.a(exceptionHandler.s.o)
                              /opt/blocksds/core/libs/libnds/lib/libnds9.a(exceptions.c.o) (enterException)
/opt/blocksds/core/libs/libnds/lib/libnds9.a(coroutine.s.o)
                              /opt/blocksds/core/libs/libnds/lib/libnds9.a(threads.c.o) (__ndsabi_coro_resume)
/opt/blocksds/core/libs/libnds/lib/libnds9.a(card.c.o)
                              /opt/blocksds/core/libs/libnds/lib/libnds9.a(nitrofs.c.o) (cardReadArm7)
/opt/blocksds/core/libs/libnds/lib/libnds9.a(dldi.c.o)
                              /opt/blocksds/core/libs/libnds/lib/libnds9.a(nitrofs.c.o) (dldiGetMode)
/opt/blocksds/core/libs/libnds/lib/libnds9.a(keyboard.c.o)
                              /opt/blocksds/core/libs/libnds/lib/libnds9.a(iob.c.o) (keyboardUpdate)
/opt/blocksds/core/libs/libnds/lib/libnds9.a(trig.c.o)
                              /opt/blocksds/core/libs/libnds/lib/libnds9.a(background.c.o) (sinLerp)
/opt/blocksds/core/libs/libnds/lib/libnds9.a(sprite_alloc.c.o)
                              /opt/blocksds/core/libs/libnds/lib/libnds9.a(sprite.c.o) (oamAllocReset)
/opt/blocksds/core/libs/libnds/lib/libnds9.a(ffsystem.c.o)
                              /opt/blocksds/core/libs/libnds/lib/libnds9.a(ff.c.o) (ff_mutex_create)
/opt/blocksds/core/libs/libnds/lib/libnds9.a(diskio.c.o)
                              /opt/blocksds/core/libs/libnds/lib/libnds9.a(ff.c.o) (disk_status)
/opt/blocksds/core/libs/libnds/lib/libnds9.a(decompress.c.o)
                              /opt/blocksds/core/libs/libnds/lib/libnds9.a(keyboard.c.o) (decompress)
/opt/blocksds/core/libs/libnds/lib/libnds9.a(keyboardGfx.png.o)
                              /opt/blocksds/core/libs/libnds/lib/libnds9.a(keyboard.c.o) (keyboardGfxPal)
/opt/blocksds/core/libs/libnds/lib/libnds9.a(dldi_stub.s.o)
                              /opt/blocksds/core/libs/libnds/lib/libnds9.a(dldi.c.o) (_io_dldi_stub)
/opt/blocksds/core/libs/libnds/lib/libnds9.a(sdmmc.twl.c.o)
                              /opt/blocksds/core/libs/libnds/lib/libnds9.a(diskio.c.o) (sdmmc_GetDiskStatus)
/opt/blocksds/core/libs/libnds/lib/libnds9.a(syscalls.c.o)
                              /opt/blocksds/core/libs/libnds/lib/libnds9.a(decompress.c.o) (swiDecompressLZSSVram)
/opt/wonderful/toolchain/gcc-arm-none-eabi/lib/gcc/arm-none-eabi/14.2.0/../../../../arm-none-eabi/lib/thumb/arm946e-s/libc.a(strcmp.S.o)
                              /opt/blocksds/external/nflib/lib/libnflib.a(nf_basic.c.o) (strcmp)
/opt/wonderful/toolchain/gcc-arm-none-eabi/lib/gcc/arm-none-eabi/14.2.0/../../../../arm-none-eabi/lib/thumb/arm946e-s/libc.a(strcpy.S.o)
                              /opt/blocksds/core/libs/libnds/lib/libnds9.a(exceptions.c.o) (strcpy)
/opt/wonderful/toolchain/gcc-arm-none-eabi/lib/gcc/arm-none-eabi/14.2.0/../../../../arm-none-eabi/lib/thumb/arm946e-s/libc.a(strlen.S.o)
                              /opt/blocksds/external/nflib/lib/libnflib.a(nf_text.c.o) (strlen)
/opt/wonderful/toolchain/gcc-arm-none-eabi/lib/gcc/arm-none-eabi/14.2.0/../../../../arm-none-eabi/lib/thumb/arm946e-s/libc.a(malloc-calloc.c.o)
                              /opt/blocksds/external/nflib/lib/libnflib.a(nf_basic.c.o) (calloc)
/opt/wonderful/toolchain/gcc-arm-none-eabi/lib/gcc/arm-none-eabi/14.2.0/../../../../arm-none-eabi/lib/thumb/arm946e-s/libc.a(malloc-free.c.o)
                              /opt/blocksds/external/nflib/lib/libnflib.a(nf_collision.c.o) (free)
/opt/wonderful/toolchain/gcc-arm-none-eabi/lib/gcc/arm-none-eabi/14.2.0/../../../../arm-none-eabi/lib/thumb/arm946e-s/libc.a(malloc-malloc.c.o)
                              /opt/blocksds/external/nflib/lib/libnflib.a(nf_basic.c.o) (malloc)
/opt/wonderful/toolchain/gcc-arm-none-eabi/lib/gcc/arm-none-eabi/14.2.0/../../../../arm-none-eabi/lib/thumb/arm946e-s/libc.a(malloc-memalign.c.o)
                              /opt/blocksds/core/libs/libnds/lib/libnds9.a(threads.c.o) (memalign)
/opt/wonderful/toolchain/gcc-arm-none-eabi/lib/gcc/arm-none-eabi/14.2.0/../../../../arm-none-eabi/lib/thumb/arm946e-s/libc.a(malloc-realloc.c.o)
                              /opt/blocksds/core/libs/libnds/lib/libnds9.a(fatfs.c.o) (realloc)
/opt/wonderful/toolchain/gcc-arm-none-eabi/lib/gcc/arm-none-eabi/14.2.0/../../../../arm-none-eabi/lib/thumb/arm946e-s/libc.a(libc_errno_errno.c.o)
                              /opt/blocksds/core/libs/libnds/lib/libnds9.a(chdir.c.o) (errno)
/opt/wonderful/toolchain/gcc-arm-none-eabi/lib/gcc/arm-none-eabi/14.2.0/../../../../arm-none-eabi/lib/thumb/arm946e-s/libc.a(libc_misc_init.c.o)
                              /opt/blocksds/core/sys/crts/ds_arm9_crt0.o (__libc_init_array)
/opt/wonderful/toolchain/gcc-arm-none-eabi/lib/gcc/arm-none-eabi/14.2.0/../../../../arm-none-eabi/lib/thumb/arm946e-s/libc.a(libc_search_bsearch.c.o)
                              /opt/blocksds/core/libs/libnds/lib/libnds9.a(trig.c.o) (bsearch)
/opt/wonderful/toolchain/gcc-arm-none-eabi/lib/gcc/arm-none-eabi/14.2.0/../../../../arm-none-eabi/lib/thumb/arm946e-s/libc.a(libc_stdlib_pico-exit.c.o)
                              /opt/blocksds/core/libs/libnds/lib/libnds9.a(exit.c.o) (exit)
/opt/wonderful/toolchain/gcc-arm-none-eabi/lib/gcc/arm-none-eabi/14.2.0/../../../../arm-none-eabi/lib/thumb/arm946e-s/libc.a(libc_string_memcmp.c.o)
                              /opt/blocksds/core/libs/libnds/lib/libnds9.a(nitrofs.c.o) (memcmp)
/opt/wonderful/toolchain/gcc-arm-none-eabi/lib/gcc/arm-none-eabi/14.2.0/../../../../arm-none-eabi/lib/thumb/arm946e-s/libc.a(libc_string_strchr.c.o)
                              /opt/blocksds/core/libs/libnds/lib/libnds9.a(nitrofs.c.o) (strchr)
/opt/wonderful/toolchain/gcc-arm-none-eabi/lib/gcc/arm-none-eabi/14.2.0/../../../../arm-none-eabi/lib/thumb/arm946e-s/libc.a(libc_string_strdup.c.o)
                              /opt/blocksds/core/libs/libnds/lib/libnds9.a(chdir.c.o) (strdup)
/opt/wonderful/toolchain/gcc-arm-none-eabi/lib/gcc/arm-none-eabi/14.2.0/../../../../arm-none-eabi/lib/thumb/arm946e-s/libc.a(libc_string_strncmp.c.o)
                              /opt/blocksds/external/nflib/lib/libnflib.a(nf_basic.c.o) (strncmp)
/opt/wonderful/toolchain/gcc-arm-none-eabi/lib/gcc/arm-none-eabi/14.2.0/../../../../arm-none-eabi/lib/thumb/arm946e-s/libc.a(libc_string_strncpy.c.o)
                              /opt/blocksds/core/libs/libnds/lib/libnds9.a(nitrofs.c.o) (strncpy)
/opt/wonderful/toolchain/gcc-arm-none-eabi/lib/gcc/arm-none-eabi/14.2.0/../../../../arm-none-eabi/lib/thumb/arm946e-s/libc.a(libc_string_strstr.c.o)
                              /opt/blocksds/core/libs/libnds/lib/libnds9.a(chdir.c.o) (strstr)
/opt/wonderful/toolchain/gcc-arm-none-eabi/lib/gcc/arm-none-eabi/14.2.0/../../../../arm-none-eabi/lib/thumb/arm946e-s/libc.a(libc_time_lcltime.c.o)
                              /opt/blocksds/core/libs/libnds/lib/libnds9.a(diskio.c.o) (localtime)
/opt/wonderful/toolchain/gcc-arm-none-eabi/lib/gcc/arm-none-eabi/14.2.0/../../../../arm-none-eabi/lib/thumb/arm946e-s/libc.a(libc_time_lcltime_r.c.o)
                              /opt/wonderful/toolchain/gcc-arm-none-eabi/lib/gcc/arm-none-eabi/14.2.0/../../../../arm-none-eabi/lib/thumb/arm946e-s/libc.a(libc_time_lcltime.c.o) (localtime_r)
/opt/wonderful/toolchain/gcc-arm-none-eabi/lib/gcc/arm-none-eabi/14.2.0/../../../../arm-none-eabi/lib/thumb/arm946e-s/libc.a(libc_time_lcltime_buf.c.o)
                              /opt/wonderful/toolchain/gcc-arm-none-eabi/lib/gcc/arm-none-eabi/14.2.0/../../../../arm-none-eabi/lib/thumb/arm946e-s/libc.a(libc_time_lcltime.c.o) (_localtime_buf)
/opt/wonderful/toolchain/gcc-arm-none-eabi/lib/gcc/arm-none-eabi/14.2.0/../../../../arm-none-eabi/lib/thumb/arm946e-s/libc.a(libc_time_mktime.c.o)
                              /opt/blocksds/core/libs/libnds/lib/libnds9.a(filesystem.c.o) (mktime)
/opt/wonderful/toolchain/gcc-arm-none-eabi/lib/gcc/arm-none-eabi/14.2.0/../../../../arm-none-eabi/lib/thumb/arm946e-s/libc.a(libc_time_month_lengths.c.o)
                              /opt/wonderful/toolchain/gcc-arm-none-eabi/lib/gcc/arm-none-eabi/14.2.0/../../../../arm-none-eabi/lib/thumb/arm946e-s/libc.a(libc_time_lcltime_r.c.o) (__month_lengths)
/opt/wonderful/toolchain/gcc-arm-none-eabi/lib/gcc/arm-none-eabi/14.2.0/../../../../arm-none-eabi/lib/thumb/arm946e-s/libc.a(libc_time_time.c.o)
                              /opt/blocksds/core/libs/libnds/lib/libnds9.a(diskio.c.o) (time)
/opt/wonderful/toolchain/gcc-arm-none-eabi/lib/gcc/arm-none-eabi/14.2.0/../../../../arm-none-eabi/lib/thumb/arm946e-s/libc.a(libc_time_tzcalc_limits.c.o)
                              /opt/wonderful/toolchain/gcc-arm-none-eabi/lib/gcc/arm-none-eabi/14.2.0/../../../../arm-none-eabi/lib/thumb/arm946e-s/libc.a(libc_time_lcltime_r.c.o) (__tzcalc_limits)
/opt/wonderful/toolchain/gcc-arm-none-eabi/lib/gcc/arm-none-eabi/14.2.0/../../../../arm-none-eabi/lib/thumb/arm946e-s/libc.a(libc_time_tzset.c.o)
                              /opt/wonderful/toolchain/gcc-arm-none-eabi/lib/gcc/arm-none-eabi/14.2.0/../../../../arm-none-eabi/lib/thumb/arm946e-s/libc.a(libc_time_lcltime_r.c.o) (_tzset_unlocked)
/opt/wonderful/toolchain/gcc-arm-none-eabi/lib/gcc/arm-none-eabi/14.2.0/../../../../arm-none-eabi/lib/thumb/arm946e-s/libc.a(libc_time_tzvars.c.o)
                              /opt/wonderful/toolchain/gcc-arm-none-eabi/lib/gcc/arm-none-eabi/14.2.0/../../../../arm-none-eabi/lib/thumb/arm946e-s/libc.a(libc_time_tzset.c.o) (_timezone)
/opt/wonderful/toolchain/gcc-arm-none-eabi/lib/gcc/arm-none-eabi/14.2.0/../../../../arm-none-eabi/lib/thumb/arm946e-s/libc.a(libc_tinystdio_fclose.c.o)
                              /opt/blocksds/external/nflib/lib/libnflib.a(nf_basic.c.o) (fclose)
/opt/wonderful/toolchain/gcc-arm-none-eabi/lib/gcc/arm-none-eabi/14.2.0/../../../../arm-none-eabi/lib/thumb/arm946e-s/libc.a(libc_tinystdio_fflush.c.o)
                              /opt/blocksds/core/libs/libnds/lib/libnds9.a(console.c.o) (fflush)
/opt/wonderful/toolchain/gcc-arm-none-eabi/lib/gcc/arm-none-eabi/14.2.0/../../../../arm-none-eabi/lib/thumb/arm946e-s/libc.a(libc_tinystdio_fileno.c.o)
                              /opt/blocksds/core/libs/libnds/lib/libnds9.a(nitrofs.c.o) (fileno)
/opt/wonderful/toolchain/gcc-arm-none-eabi/lib/gcc/arm-none-eabi/14.2.0/../../../../arm-none-eabi/lib/thumb/arm946e-s/libc.a(libc_tinystdio_fread.c.o)
                              /opt/blocksds/external/nflib/lib/libnflib.a(nf_basic.c.o) (fread)
/opt/wonderful/toolchain/gcc-arm-none-eabi/lib/gcc/arm-none-eabi/14.2.0/../../../../arm-none-eabi/lib/thumb/arm946e-s/libc.a(libc_tinystdio_fseek.c.o)
                              /opt/blocksds/external/nflib/lib/libnflib.a(nf_basic.c.o) (fseek)
/opt/wonderful/toolchain/gcc-arm-none-eabi/lib/gcc/arm-none-eabi/14.2.0/../../../../arm-none-eabi/lib/thumb/arm946e-s/libc.a(libc_tinystdio_ftell.c.o)
                              /opt/blocksds/external/nflib/lib/libnflib.a(nf_basic.c.o) (ftell)
/opt/wonderful/toolchain/gcc-arm-none-eabi/lib/gcc/arm-none-eabi/14.2.0/../../../../arm-none-eabi/lib/thumb/arm946e-s/libc.a(libc_tinystdio_printf.c.o)
                              /opt/blocksds/external/nflib/lib/libnflib.a(nf_basic.c.o) (printf)
/opt/wonderful/toolchain/gcc-arm-none-eabi/lib/gcc/arm-none-eabi/14.2.0/../../../../arm-none-eabi/lib/thumb/arm946e-s/libc.a(libc_tinystdio_putchar.c.o)
                              /opt/blocksds/core/libs/libnds/lib/libnds9.a(exceptions.c.o) (putchar)
/opt/wonderful/toolchain/gcc-arm-none-eabi/lib/gcc/arm-none-eabi/14.2.0/../../../../arm-none-eabi/lib/thumb/arm946e-s/libc.a(libc_tinystdio_puts.c.o)
                              build/test_repository/source/main.c.o (puts)
/opt/wonderful/toolchain/gcc-arm-none-eabi/lib/gcc/arm-none-eabi/14.2.0/../../../../arm-none-eabi/lib/thumb/arm946e-s/libc.a(libc_tinystdio_rewind.c.o)
                              /opt/blocksds/external/nflib/lib/libnflib.a(nf_basic.c.o) (rewind)
/opt/wonderful/toolchain/gcc-arm-none-eabi/lib/gcc/arm-none-eabi/14.2.0/../../../../arm-none-eabi/lib/thumb/arm946e-s/libc.a(libc_tinystdio_setvbuf.c.o)
                              /opt/blocksds/core/libs/libnds/lib/libnds9.a(console.c.o) (setvbuf)
/opt/wonderful/toolchain/gcc-arm-none-eabi/lib/gcc/arm-none-eabi/14.2.0/../../../../arm-none-eabi/lib/thumb/arm946e-s/libc.a(libc_tinystdio_snprintf.c.o)
                              /opt/blocksds/external/nflib/lib/libnflib.a(nf_basic.c.o) (snprintf)
/opt/wonderful/toolchain/gcc-arm-none-eabi/lib/gcc/arm-none-eabi/14.2.0/../../../../arm-none-eabi/lib/thumb/arm946e-s/libc.a(libc_tinystdio_sscanf.c.o)
                              /opt/wonderful/toolchain/gcc-arm-none-eabi/lib/gcc/arm-none-eabi/14.2.0/../../../../arm-none-eabi/lib/thumb/arm946e-s/libc.a(libc_time_tzset.c.o) (sscanf)
/opt/wonderful/toolchain/gcc-arm-none-eabi/lib/gcc/arm-none-eabi/14.2.0/../../../../arm-none-eabi/lib/thumb/arm946e-s/libc.a(libc_tinystdio_strtoul.c.o)
                              /opt/wonderful/toolchain/gcc-arm-none-eabi/lib/gcc/arm-none-eabi/14.2.0/../../../../arm-none-eabi/lib/thumb/arm946e-s/libc.a(libc_time_tzset.c.o) (strtoul)
/opt/wonderful/toolchain/gcc-arm-none-eabi/lib/gcc/arm-none-eabi/14.2.0/../../../../arm-none-eabi/lib/thumb/arm946e-s/libc.a(libc_tinystdio_vfprintf.c.o)
                              /opt/wonderful/toolchain/gcc-arm-none-eabi/lib/gcc/arm-none-eabi/14.2.0/../../../../arm-none-eabi/lib/thumb/arm946e-s/libc.a(libc_tinystdio_printf.c.o) (vfprintf)
/opt/wonderful/toolchain/gcc-arm-none-eabi/lib/gcc/arm-none-eabi/14.2.0/../../../../arm-none-eabi/lib/thumb/arm946e-s/libc.a(libc_tinystdio_vfscanf.c.o)
                              /opt/wonderful/toolchain/gcc-arm-none-eabi/lib/gcc/arm-none-eabi/14.2.0/../../../../arm-none-eabi/lib/thumb/arm946e-s/libc.a(libc_tinystdio_sscanf.c.o) (vfscanf)
/opt/wonderful/toolchain/gcc-arm-none-eabi/lib/gcc/arm-none-eabi/14.2.0/../../../../arm-none-eabi/lib/thumb/arm946e-s/libc.a(libc_tinystdio_atod_ryu.c.o)
                              /opt/wonderful/toolchain/gcc-arm-none-eabi/lib/gcc/arm-none-eabi/14.2.0/../../../../arm-none-eabi/lib/thumb/arm946e-s/libc.a(libc_tinystdio_vfscanf.c.o) (__atod_engine)
/opt/wonderful/toolchain/gcc-arm-none-eabi/lib/gcc/arm-none-eabi/14.2.0/../../../../arm-none-eabi/lib/thumb/arm946e-s/libc.a(libc_tinystdio_atof_ryu.c.o)
                              /opt/wonderful/toolchain/gcc-arm-none-eabi/lib/gcc/arm-none-eabi/14.2.0/../../../../arm-none-eabi/lib/thumb/arm946e-s/libc.a(libc_tinystdio_vfscanf.c.o) (__atof_engine)
/opt/wonderful/toolchain/gcc-arm-none-eabi/lib/gcc/arm-none-eabi/14.2.0/../../../../arm-none-eabi/lib/thumb/arm946e-s/libc.a(libc_tinystdio_dtoa_ryu.c.o)
                              /opt/wonderful/toolchain/gcc-arm-none-eabi/lib/gcc/arm-none-eabi/14.2.0/../../../../arm-none-eabi/lib/thumb/arm946e-s/libc.a(libc_tinystdio_vfprintf.c.o) (__dtoa_engine)
/opt/wonderful/toolchain/gcc-arm-none-eabi/lib/gcc/arm-none-eabi/14.2.0/../../../../arm-none-eabi/lib/thumb/arm946e-s/libc.a(libc_tinystdio_ryu_divpow2.c.o)
                              /opt/wonderful/toolchain/gcc-arm-none-eabi/lib/gcc/arm-none-eabi/14.2.0/../../../../arm-none-eabi/lib/thumb/arm946e-s/libc.a(libc_tinystdio_atof_ryu.c.o) (__mulPow5InvDivPow2)
/opt/wonderful/toolchain/gcc-arm-none-eabi/lib/gcc/arm-none-eabi/14.2.0/../../../../arm-none-eabi/lib/thumb/arm946e-s/libc.a(libc_tinystdio_ryu_log10.c.o)
                              /opt/wonderful/toolchain/gcc-arm-none-eabi/lib/gcc/arm-none-eabi/14.2.0/../../../../arm-none-eabi/lib/thumb/arm946e-s/libc.a(libc_tinystdio_dtoa_ryu.c.o) (__log10Pow2)
/opt/wonderful/toolchain/gcc-arm-none-eabi/lib/gcc/arm-none-eabi/14.2.0/../../../../arm-none-eabi/lib/thumb/arm946e-s/libc.a(libc_tinystdio_ryu_log2pow5.c.o)
                              /opt/wonderful/toolchain/gcc-arm-none-eabi/lib/gcc/arm-none-eabi/14.2.0/../../../../arm-none-eabi/lib/thumb/arm946e-s/libc.a(libc_tinystdio_atod_ryu.c.o) (__log2pow5)
/opt/wonderful/toolchain/gcc-arm-none-eabi/lib/gcc/arm-none-eabi/14.2.0/../../../../arm-none-eabi/lib/thumb/arm946e-s/libc.a(libc_tinystdio_ryu_pow5bits.c.o)
                              /opt/wonderful/toolchain/gcc-arm-none-eabi/lib/gcc/arm-none-eabi/14.2.0/../../../../arm-none-eabi/lib/thumb/arm946e-s/libc.a(libc_tinystdio_dtoa_ryu.c.o) (__pow5bits)
/opt/wonderful/toolchain/gcc-arm-none-eabi/lib/gcc/arm-none-eabi/14.2.0/../../../../arm-none-eabi/lib/thumb/arm946e-s/libc.a(libc_tinystdio_ryu_table.c.o)
                              /opt/wonderful/toolchain/gcc-arm-none-eabi/lib/gcc/arm-none-eabi/14.2.0/../../../../arm-none-eabi/lib/thumb/arm946e-s/libc.a(libc_tinystdio_atod_ryu.c.o) (__pow5Factor)
/opt/wonderful/toolchain/gcc-arm-none-eabi/lib/gcc/arm-none-eabi/14.2.0/../../../../arm-none-eabi/lib/thumb/arm946e-s/libc.a(libc_tinystdio_ryu_umul128.c.o)
                              /opt/wonderful/toolchain/gcc-arm-none-eabi/lib/gcc/arm-none-eabi/14.2.0/../../../../arm-none-eabi/lib/thumb/arm946e-s/libc.a(libc_tinystdio_atod_ryu.c.o) (__umul128)
/opt/wonderful/toolchain/gcc-arm-none-eabi/lib/gcc/arm-none-eabi/14.2.0/../../../../arm-none-eabi/lib/thumb/arm946e-s/libc.a(libc_tinystdio_exchange.c.o)
                              /opt/wonderful/toolchain/gcc-arm-none-eabi/lib/gcc/arm-none-eabi/14.2.0/../../../../arm-none-eabi/lib/thumb/arm946e-s/libc.a(libc_tinystdio_fread.c.o) (__atomic_exchange_ungetc)
/opt/wonderful/toolchain/gcc-arm-none-eabi/lib/gcc/arm-none-eabi/14.2.0/../../../../arm-none-eabi/lib/thumb/arm946e-s/libc.a(libc_tinystdio_fdopen.c.o)
                              /opt/blocksds/core/libs/libnds/lib/libnds9.a(nitrofs.c.o) (fdopen)
/opt/wonderful/toolchain/gcc-arm-none-eabi/lib/gcc/arm-none-eabi/14.2.0/../../../../arm-none-eabi/lib/thumb/arm946e-s/libc.a(libc_tinystdio_fopen.c.o)
                              /opt/blocksds/external/nflib/lib/libnflib.a(nf_basic.c.o) (fopen)
/opt/wonderful/toolchain/gcc-arm-none-eabi/lib/gcc/arm-none-eabi/14.2.0/../../../../arm-none-eabi/lib/thumb/arm946e-s/libc.a(memmove.c.o)
                              /opt/wonderful/toolchain/gcc-arm-none-eabi/lib/gcc/arm-none-eabi/14.2.0/../../../../arm-none-eabi/lib/thumb/arm946e-s/libc.a(malloc-realloc.c.o) (memmove)
/opt/wonderful/toolchain/gcc-arm-none-eabi/lib/gcc/arm-none-eabi/14.2.0/../../../../arm-none-eabi/lib/thumb/arm946e-s/libc.a(libc_misc_fini.c.o)
                              /opt/wonderful/toolchain/gcc-arm-none-eabi/lib/gcc/arm-none-eabi/14.2.0/../../../../arm-none-eabi/lib/thumb/arm946e-s/libc.a(libc_stdlib_pico-exit.c.o) (__libc_fini_array)
/opt/wonderful/toolchain/gcc-arm-none-eabi/lib/gcc/arm-none-eabi/14.2.0/../../../../arm-none-eabi/lib/thumb/arm946e-s/libc.a(libc_stdlib_div.c.o)
                              /opt/wonderful/toolchain/gcc-arm-none-eabi/lib/gcc/arm-none-eabi/14.2.0/../../../../arm-none-eabi/lib/thumb/arm946e-s/libc.a(libc_time_mktime.c.o) (div)
/opt/wonderful/toolchain/gcc-arm-none-eabi/lib/gcc/arm-none-eabi/14.2.0/../../../../arm-none-eabi/lib/thumb/arm946e-s/libc.a(libc_stdlib_getenv.c.o)
                              /opt/wonderful/toolchain/gcc-arm-none-eabi/lib/gcc/arm-none-eabi/14.2.0/../../../../arm-none-eabi/lib/thumb/arm946e-s/libc.a(libc_time_tzset.c.o) (getenv)
/opt/wonderful/toolchain/gcc-arm-none-eabi/lib/gcc/arm-none-eabi/14.2.0/../../../../arm-none-eabi/lib/thumb/arm946e-s/libc.a(libc_stdlib_getenv_r.c.o)
                              /opt/wonderful/toolchain/gcc-arm-none-eabi/lib/gcc/arm-none-eabi/14.2.0/../../../../arm-none-eabi/lib/thumb/arm946e-s/libc.a(libc_stdlib_getenv.c.o) (_findenv)
/opt/wonderful/toolchain/gcc-arm-none-eabi/lib/gcc/arm-none-eabi/14.2.0/../../../../arm-none-eabi/lib/thumb/arm946e-s/libc.a(libc_string_strnlen.c.o)
                              /opt/wonderful/toolchain/gcc-arm-none-eabi/lib/gcc/arm-none-eabi/14.2.0/../../../../arm-none-eabi/lib/thumb/arm946e-s/libc.a(libc_tinystdio_vfprintf.c.o) (strnlen)
/opt/wonderful/toolchain/gcc-arm-none-eabi/lib/gcc/arm-none-eabi/14.2.0/../../../../arm-none-eabi/lib/thumb/arm946e-s/libc.a(libc_time_gettzinfo.c.o)
                              /opt/wonderful/toolchain/gcc-arm-none-eabi/lib/gcc/arm-none-eabi/14.2.0/../../../../arm-none-eabi/lib/thumb/arm946e-s/libc.a(libc_time_lcltime_r.c.o) (__gettzinfo)
/opt/wonderful/toolchain/gcc-arm-none-eabi/lib/gcc/arm-none-eabi/14.2.0/../../../../arm-none-eabi/lib/thumb/arm946e-s/libc.a(libc_time_gmtime_r.c.o)
                              /opt/wonderful/toolchain/gcc-arm-none-eabi/lib/gcc/arm-none-eabi/14.2.0/../../../../arm-none-eabi/lib/thumb/arm946e-s/libc.a(libc_time_lcltime_r.c.o) (gmtime_r)
/opt/wonderful/toolchain/gcc-arm-none-eabi/lib/gcc/arm-none-eabi/14.2.0/../../../../arm-none-eabi/lib/thumb/arm946e-s/libc.a(libc_tinystdio_atomic_load.c.o)
                              /opt/wonderful/toolchain/gcc-arm-none-eabi/lib/gcc/arm-none-eabi/14.2.0/../../../../arm-none-eabi/lib/thumb/arm946e-s/libc.a(libc_tinystdio_ftell.c.o) (__atomic_load_ungetc)
/opt/wonderful/toolchain/gcc-arm-none-eabi/lib/gcc/arm-none-eabi/14.2.0/../../../../arm-none-eabi/lib/thumb/arm946e-s/libc.a(libc_tinystdio_bufio.c.o)
                              /opt/wonderful/toolchain/gcc-arm-none-eabi/lib/gcc/arm-none-eabi/14.2.0/../../../../arm-none-eabi/lib/thumb/arm946e-s/libc.a(libc_tinystdio_fread.c.o) (__bufio_fill_locked)
/opt/wonderful/toolchain/gcc-arm-none-eabi/lib/gcc/arm-none-eabi/14.2.0/../../../../arm-none-eabi/lib/thumb/arm946e-s/libc.a(libc_tinystdio_dtox_engine.c.o)
                              /opt/wonderful/toolchain/gcc-arm-none-eabi/lib/gcc/arm-none-eabi/14.2.0/../../../../arm-none-eabi/lib/thumb/arm946e-s/libc.a(libc_tinystdio_vfprintf.c.o) (__dtox_engine)
/opt/wonderful/toolchain/gcc-arm-none-eabi/lib/gcc/arm-none-eabi/14.2.0/../../../../arm-none-eabi/lib/thumb/arm946e-s/libc.a(libc_tinystdio_fgetc.c.o)
                              /opt/wonderful/toolchain/gcc-arm-none-eabi/lib/gcc/arm-none-eabi/14.2.0/../../../../arm-none-eabi/lib/thumb/arm946e-s/libc.a(libc_tinystdio_fread.c.o) (fgetc)
/opt/wonderful/toolchain/gcc-arm-none-eabi/lib/gcc/arm-none-eabi/14.2.0/../../../../arm-none-eabi/lib/thumb/arm946e-s/libc.a(libc_tinystdio_filestrget.c.o)
                              /opt/wonderful/toolchain/gcc-arm-none-eabi/lib/gcc/arm-none-eabi/14.2.0/../../../../arm-none-eabi/lib/thumb/arm946e-s/libc.a(libc_tinystdio_sscanf.c.o) (__file_str_get)
/opt/wonderful/toolchain/gcc-arm-none-eabi/lib/gcc/arm-none-eabi/14.2.0/../../../../arm-none-eabi/lib/thumb/arm946e-s/libc.a(libc_tinystdio_filestrput.c.o)
                              /opt/wonderful/toolchain/gcc-arm-none-eabi/lib/gcc/arm-none-eabi/14.2.0/../../../../arm-none-eabi/lib/thumb/arm946e-s/libc.a(libc_tinystdio_snprintf.c.o) (__file_str_put)
/opt/wonderful/toolchain/gcc-arm-none-eabi/lib/gcc/arm-none-eabi/14.2.0/../../../../arm-none-eabi/lib/thumb/arm946e-s/libc.a(libc_tinystdio_fputc.c.o)
                              /opt/wonderful/toolchain/gcc-arm-none-eabi/lib/gcc/arm-none-eabi/14.2.0/../../../../arm-none-eabi/lib/thumb/arm946e-s/libc.a(libc_tinystdio_putchar.c.o) (fputc)
/opt/wonderful/toolchain/gcc-arm-none-eabi/lib/gcc/arm-none-eabi/14.2.0/../../../../arm-none-eabi/lib/thumb/arm946e-s/libc.a(libc_tinystdio_fseeko.c.o)
                              /opt/wonderful/toolchain/gcc-arm-none-eabi/lib/gcc/arm-none-eabi/14.2.0/../../../../arm-none-eabi/lib/thumb/arm946e-s/libc.a(libc_tinystdio_fdopen.c.o) (fseeko)
/opt/wonderful/toolchain/gcc-arm-none-eabi/lib/gcc/arm-none-eabi/14.2.0/../../../../arm-none-eabi/lib/thumb/arm946e-s/libc.a(libc_tinystdio_sflags.c.o)
                              /opt/wonderful/toolchain/gcc-arm-none-eabi/lib/gcc/arm-none-eabi/14.2.0/../../../../arm-none-eabi/lib/thumb/arm946e-s/libc.a(libc_tinystdio_fdopen.c.o) (__posix_sflags)
/opt/wonderful/toolchain/gcc-arm-none-eabi/lib/gcc/arm-none-eabi/14.2.0/../../../../arm-none-eabi/lib/thumb/arm946e-s/libc.a(libc_tinystdio_ungetc.c.o)
                              /opt/wonderful/toolchain/gcc-arm-none-eabi/lib/gcc/arm-none-eabi/14.2.0/../../../../arm-none-eabi/lib/thumb/arm946e-s/libc.a(libc_tinystdio_vfscanf.c.o) (ungetc)
/opt/wonderful/toolchain/gcc-arm-none-eabi/lib/gcc/arm-none-eabi/14.2.0/../../../../arm-none-eabi/lib/thumb/arm946e-s/libc.a(libc_tinystdio_compare_exchange.c.o)
                              /opt/wonderful/toolchain/gcc-arm-none-eabi/lib/gcc/arm-none-eabi/14.2.0/../../../../arm-none-eabi/lib/thumb/arm946e-s/libc.a(libc_tinystdio_ungetc.c.o) (__atomic_compare_exchange_ungetc)
/opt/wonderful/toolchain/gcc-arm-none-eabi/lib/gcc/arm-none-eabi/14.2.0/../../../../arm-none-eabi/lib/thumb/arm946e-s/libc.a(libc_stdlib_environ.c.o)
                              /opt/wonderful/toolchain/gcc-arm-none-eabi/lib/gcc/arm-none-eabi/14.2.0/../../../../arm-none-eabi/lib/thumb/arm946e-s/libc.a(libc_stdlib_getenv_r.c.o) (environ)
/opt/blocksds/core/libs/libnds/lib/libnds9.a(syscalls.c.o)
                              /opt/wonderful/toolchain/gcc-arm-none-eabi/lib/gcc/arm-none-eabi/14.2.0/../../../../arm-none-eabi/lib/thumb/arm946e-s/libc.a(libc_time_time.c.o) (gettimeofday)
/opt/wonderful/toolchain/gcc-arm-none-eabi/lib/gcc/arm-none-eabi/14.2.0/thumb/arm946e-s/libgcc.a(_thumb1_case_uqi.o)
                              /opt/wonderful/toolchain/gcc-arm-none-eabi/lib/gcc/arm-none-eabi/14.2.0/../../../../arm-none-eabi/lib/thumb/arm946e-s/libc.a(libc_tinystdio_vfprintf.c.o) (__gnu_thumb1_case_uqi)
/opt/wonderful/toolchain/gcc-arm-none-eabi/lib/gcc/arm-none-eabi/14.2.0/thumb/arm946e-s/libgcc.a(_thumb1_case_uhi.o)
                              /opt/wonderful/toolchain/gcc-arm-none-eabi/lib/gcc/arm-none-eabi/14.2.0/../../../../arm-none-eabi/lib/thumb/arm946e-s/libc.a(libc_tinystdio_vfprintf.c.o) (__gnu_thumb1_case_uhi)
/opt/wonderful/toolchain/gcc-arm-none-eabi/lib/gcc/arm-none-eabi/14.2.0/thumb/arm946e-s/libgcc.a(_udivsi3.o)
                              /opt/blocksds/external/nflib/lib/libnflib.a(nf_sprite256.c.o) (__aeabi_uidiv)
/opt/wonderful/toolchain/gcc-arm-none-eabi/lib/gcc/arm-none-eabi/14.2.0/thumb/arm946e-s/libgcc.a(_divsi3.o)
                              build/test_repository/source/main.c.o (__aeabi_idiv)
/opt/wonderful/toolchain/gcc-arm-none-eabi/lib/gcc/arm-none-eabi/14.2.0/thumb/arm946e-s/libgcc.a(_dvmd_tls.o)
                              /opt/wonderful/toolchain/gcc-arm-none-eabi/lib/gcc/arm-none-eabi/14.2.0/thumb/arm946e-s/libgcc.a(_udivsi3.o) (__aeabi_idiv0)
/opt/wonderful/toolchain/gcc-arm-none-eabi/lib/gcc/arm-none-eabi/14.2.0/thumb/arm946e-s/libgcc.a(_lshrdi3.o)
                              /opt/wonderful/toolchain/gcc-arm-none-eabi/lib/gcc/arm-none-eabi/14.2.0/../../../../arm-none-eabi/lib/thumb/arm946e-s/libc.a(libc_tinystdio_atod_ryu.c.o) (__aeabi_llsr)
/opt/wonderful/toolchain/gcc-arm-none-eabi/lib/gcc/arm-none-eabi/14.2.0/thumb/arm946e-s/libgcc.a(_ashrdi3.o)
                              /opt/wonderful/toolchain/gcc-arm-none-eabi/lib/gcc/arm-none-eabi/14.2.0/../../../../arm-none-eabi/lib/thumb/arm946e-s/libc.a(libc_tinystdio_dtox_engine.c.o) (__aeabi_lasr)
/opt/wonderful/toolchain/gcc-arm-none-eabi/lib/gcc/arm-none-eabi/14.2.0/thumb/arm946e-s/libgcc.a(_ashldi3.o)
                              /opt/wonderful/toolchain/gcc-arm-none-eabi/lib/gcc/arm-none-eabi/14.2.0/../../../../arm-none-eabi/lib/thumb/arm946e-s/libc.a(libc_tinystdio_vfscanf.c.o) (__aeabi_llsl)
/opt/wonderful/toolchain/gcc-arm-none-eabi/lib/gcc/arm-none-eabi/14.2.0/thumb/arm946e-s/libgcc.a(_arm_addsubdf3.o)
                              /opt/wonderful/toolchain/gcc-arm-none-eabi/lib/gcc/arm-none-eabi/14.2.0/../../../../arm-none-eabi/lib/thumb/arm946e-s/libc.a(libc_tinystdio_vfscanf.c.o) (__aeabi_f2d)
/opt/wonderful/toolchain/gcc-arm-none-eabi/lib/gcc/arm-none-eabi/14.2.0/thumb/arm946e-s/libgcc.a(_arm_cmpdf2.o)
                              /opt/wonderful/toolchain/gcc-arm-none-eabi/lib/gcc/arm-none-eabi/14.2.0/../../../../arm-none-eabi/lib/thumb/arm946e-s/libc.a(libc_tinystdio_vfscanf.c.o) (__aeabi_dcmpeq)
/opt/wonderful/toolchain/gcc-arm-none-eabi/lib/gcc/arm-none-eabi/14.2.0/thumb/arm946e-s/libgcc.a(_arm_truncdfsf2.o)
                              /opt/wonderful/toolchain/gcc-arm-none-eabi/lib/gcc/arm-none-eabi/14.2.0/../../../../arm-none-eabi/lib/thumb/arm946e-s/libc.a(libc_tinystdio_vfscanf.c.o) (__aeabi_d2f)
/opt/wonderful/toolchain/gcc-arm-none-eabi/lib/gcc/arm-none-eabi/14.2.0/thumb/arm946e-s/libgcc.a(_clzsi2.o)
                              /opt/blocksds/core/libs/libnds/lib/libnds9.a(interrupts.c.o) (__clzsi2)
/opt/wonderful/toolchain/gcc-arm-none-eabi/lib/gcc/arm-none-eabi/14.2.0/thumb/arm946e-s/libgcc.a(_clzdi2.o)
                              /opt/wonderful/toolchain/gcc-arm-none-eabi/lib/gcc/arm-none-eabi/14.2.0/../../../../arm-none-eabi/lib/thumb/arm946e-s/libc.a(libc_tinystdio_atod_ryu.c.o) (__clzdi2)
/opt/wonderful/toolchain/gcc-arm-none-eabi/lib/gcc/arm-none-eabi/14.2.0/thumb/arm946e-s/libgcc.a(_aeabi_ldivmod.o)
                              /opt/wonderful/toolchain/gcc-arm-none-eabi/lib/gcc/arm-none-eabi/14.2.0/../../../../arm-none-eabi/lib/thumb/arm946e-s/libc.a(libc_time_gmtime_r.c.o) (__aeabi_ldivmod)
/opt/wonderful/toolchain/gcc-arm-none-eabi/lib/gcc/arm-none-eabi/14.2.0/thumb/arm946e-s/libgcc.a(_aeabi_uldivmod.o)
                              /opt/wonderful/toolchain/gcc-arm-none-eabi/lib/gcc/arm-none-eabi/14.2.0/../../../../arm-none-eabi/lib/thumb/arm946e-s/libc.a(libc_tinystdio_vfprintf.c.o) (__aeabi_uldivmod)
/opt/wonderful/toolchain/gcc-arm-none-eabi/lib/gcc/arm-none-eabi/14.2.0/thumb/arm946e-s/libgcc.a(_muldi3.o)
                              /opt/wonderful/toolchain/gcc-arm-none-eabi/lib/gcc/arm-none-eabi/14.2.0/../../../../arm-none-eabi/lib/thumb/arm946e-s/libc.a(libc_time_mktime.c.o) (__aeabi_lmul)
/opt/wonderful/toolchain/gcc-arm-none-eabi/lib/gcc/arm-none-eabi/14.2.0/thumb/arm946e-s/libgcc.a(_udivmoddi4.o)
                              /opt/wonderful/toolchain/gcc-arm-none-eabi/lib/gcc/arm-none-eabi/14.2.0/thumb/arm946e-s/libgcc.a(_aeabi_ldivmod.o) (__udivmoddi4)

Discarded input sections

 .text          0x00000000        0x0 /opt/blocksds/core/sys/crts/ds_arm9_crt0.o
 .data          0x00000000        0x0 /opt/blocksds/core/sys/crts/ds_arm9_crt0.o
 .bss           0x00000000        0x0 /opt/blocksds/core/sys/crts/ds_arm9_crt0.o
 .text          0x00000000        0x0 build/test_repository/source/player/player.c.o
 .data          0x00000000        0x0 build/test_repository/source/player/player.c.o
 .bss           0x00000000        0x0 build/test_repository/source/player/player.c.o
 .text          0x00000000        0x0 build/test_repository/source/main.c.o
 .data          0x00000000        0x0 build/test_repository/source/main.c.o
 .bss           0x00000000        0x0 build/test_repository/source/main.c.o
 .text          0x00000000        0x0 /opt/blocksds/external/nflib/lib/libnflib.a(nf_basic.c.o)
 .data          0x00000000        0x0 /opt/blocksds/external/nflib/lib/libnflib.a(nf_basic.c.o)
 .bss           0x00000000        0x0 /opt/blocksds/external/nflib/lib/libnflib.a(nf_basic.c.o)
 .text          0x00000000        0x0 /opt/blocksds/external/nflib/lib/libnflib.a(nf_collision.c.o)
 .data          0x00000000        0x0 /opt/blocksds/external/nflib/lib/libnflib.a(nf_collision.c.o)
 .bss           0x00000000        0x0 /opt/blocksds/external/nflib/lib/libnflib.a(nf_collision.c.o)
 .text.NF_ResetCmapBuffers
                0x00000000       0x28 /opt/blocksds/external/nflib/lib/libnflib.a(nf_collision.c.o)
 .text.NF_UnloadCollisionMap
                0x00000000       0x40 /opt/blocksds/external/nflib/lib/libnflib.a(nf_collision.c.o)
 .text.NF_SetTile
                0x00000000       0x40 /opt/blocksds/external/nflib/lib/libnflib.a(nf_collision.c.o)
 .rodata.NF_LoadCollisionBg.str1.4
                0x00000000       0x26 /opt/blocksds/external/nflib/lib/libnflib.a(nf_collision.c.o)
 .text.NF_LoadCollisionBg
                0x00000000      0x140 /opt/blocksds/external/nflib/lib/libnflib.a(nf_collision.c.o)
 .text.NF_UnloadCollisionBg
                0x00000000       0x48 /opt/blocksds/external/nflib/lib/libnflib.a(nf_collision.c.o)
 .text.NF_GetPoint
                0x00000000       0x54 /opt/blocksds/external/nflib/lib/libnflib.a(nf_collision.c.o)
 .text          0x00000000        0x0 /opt/blocksds/external/nflib/lib/libnflib.a(nf_text.c.o)
 .data          0x00000000        0x0 /opt/blocksds/external/nflib/lib/libnflib.a(nf_text.c.o)
 .bss           0x00000000        0x0 /opt/blocksds/external/nflib/lib/libnflib.a(nf_text.c.o)
 .text.NF_UnloadTextFont
                0x00000000        0x8 /opt/blocksds/external/nflib/lib/libnflib.a(nf_text.c.o)
 .text.NF_DeleteTextLayer
                0x00000000       0x38 /opt/blocksds/external/nflib/lib/libnflib.a(nf_text.c.o)
 .text.NF_ClearTextLayer
                0x00000000       0x4c /opt/blocksds/external/nflib/lib/libnflib.a(nf_text.c.o)
 .text.NF_DefineTextColor
                0x00000000       0x88 /opt/blocksds/external/nflib/lib/libnflib.a(nf_text.c.o)
 .text          0x00000000        0x0 /opt/blocksds/external/nflib/lib/libnflib.a(nf_tiledbg.c.o)
 .data          0x00000000        0x0 /opt/blocksds/external/nflib/lib/libnflib.a(nf_tiledbg.c.o)
 .bss           0x00000000        0x0 /opt/blocksds/external/nflib/lib/libnflib.a(nf_tiledbg.c.o)
 .text.NF_ResetTiledBgBuffers
                0x00000000       0x5c /opt/blocksds/external/nflib/lib/libnflib.a(nf_tiledbg.c.o)
 .rodata.NF_LoadTilesForBg.str1.4
                0x00000000        0xc /opt/blocksds/external/nflib/lib/libnflib.a(nf_tiledbg.c.o)
 .text.NF_LoadTilesForBg
                0x00000000      0x1d4 /opt/blocksds/external/nflib/lib/libnflib.a(nf_tiledbg.c.o)
 .text.NF_UnloadTiledBg
                0x00000000       0x9c /opt/blocksds/external/nflib/lib/libnflib.a(nf_tiledbg.c.o)
 .text.NF_GetTileOfMap
                0x00000000       0x3c /opt/blocksds/external/nflib/lib/libnflib.a(nf_tiledbg.c.o)
 .text.NF_BgSetPalColor
                0x00000000       0x94 /opt/blocksds/external/nflib/lib/libnflib.a(nf_tiledbg.c.o)
 .text.NF_BgEditPalColor
                0x00000000       0x6c /opt/blocksds/external/nflib/lib/libnflib.a(nf_tiledbg.c.o)
 .text.NF_BgUpdatePalette
                0x00000000       0xa4 /opt/blocksds/external/nflib/lib/libnflib.a(nf_tiledbg.c.o)
 .text.NF_BgGetPalColor
                0x00000000       0x70 /opt/blocksds/external/nflib/lib/libnflib.a(nf_tiledbg.c.o)
 .text.NF_GetTilePal
                0x00000000       0x34 /opt/blocksds/external/nflib/lib/libnflib.a(nf_tiledbg.c.o)
 .text.NF_SetTilePal
                0x00000000       0x40 /opt/blocksds/external/nflib/lib/libnflib.a(nf_tiledbg.c.o)
 .rodata.NF_LoadExBgPal.str1.4
                0x00000000        0x8 /opt/blocksds/external/nflib/lib/libnflib.a(nf_tiledbg.c.o)
 .text.NF_LoadExBgPal
                0x00000000       0x60 /opt/blocksds/external/nflib/lib/libnflib.a(nf_tiledbg.c.o)
 .text.NF_UnloadExBgPal
                0x00000000       0x44 /opt/blocksds/external/nflib/lib/libnflib.a(nf_tiledbg.c.o)
 .text.NF_VramExBgPal
                0x00000000       0x8c /opt/blocksds/external/nflib/lib/libnflib.a(nf_tiledbg.c.o)
 .text.NF_SetExBgPal
                0x00000000       0xc0 /opt/blocksds/external/nflib/lib/libnflib.a(nf_tiledbg.c.o)
 .text.NF_SetTileHflip
                0x00000000       0x38 /opt/blocksds/external/nflib/lib/libnflib.a(nf_tiledbg.c.o)
 .text.NF_SetTileVflip
                0x00000000       0x38 /opt/blocksds/external/nflib/lib/libnflib.a(nf_tiledbg.c.o)
 .text          0x00000000        0x0 /opt/blocksds/external/nflib/lib/libnflib.a(nf_2d.c.o)
 .data          0x00000000        0x0 /opt/blocksds/external/nflib/lib/libnflib.a(nf_2d.c.o)
 .bss           0x00000000        0x0 /opt/blocksds/external/nflib/lib/libnflib.a(nf_2d.c.o)
 .rodata.NF_SpriteFrame.str1.4
                0x00000000       0x15 /opt/blocksds/external/nflib/lib/libnflib.a(nf_2d.c.o)
 .text.NF_SpriteFrame
                0x00000000       0xb8 /opt/blocksds/external/nflib/lib/libnflib.a(nf_2d.c.o)
 .rodata.NF_EnableSpriteRotScale.str1.4
                0x00000000        0xf /opt/blocksds/external/nflib/lib/libnflib.a(nf_2d.c.o)
 .text.NF_EnableSpriteRotScale
                0x00000000       0x6c /opt/blocksds/external/nflib/lib/libnflib.a(nf_2d.c.o)
 .text.NF_DisableSpriteRotScale
                0x00000000       0x5c /opt/blocksds/external/nflib/lib/libnflib.a(nf_2d.c.o)
 .text.NF_SpriteRotScale
                0x00000000       0x6c /opt/blocksds/external/nflib/lib/libnflib.a(nf_2d.c.o)
 .text          0x00000000        0x0 /opt/blocksds/external/nflib/lib/libnflib.a(nf_sprite256.c.o)
 .data          0x00000000        0x0 /opt/blocksds/external/nflib/lib/libnflib.a(nf_sprite256.c.o)
 .bss           0x00000000        0x0 /opt/blocksds/external/nflib/lib/libnflib.a(nf_sprite256.c.o)
 .text.NF_ResetSpriteBuffers
                0x00000000       0x34 /opt/blocksds/external/nflib/lib/libnflib.a(nf_sprite256.c.o)
 .text.NF_UnloadSpriteGfx
                0x00000000       0x64 /opt/blocksds/external/nflib/lib/libnflib.a(nf_sprite256.c.o)
 .text.NF_UnloadSpritePal
                0x00000000       0x5c /opt/blocksds/external/nflib/lib/libnflib.a(nf_sprite256.c.o)
 .text.NF_VramSpriteGfxDefrag
                0x00000000      0x21c /opt/blocksds/external/nflib/lib/libnflib.a(nf_sprite256.c.o)
 .text.NF_FreeSpriteGfx
                0x00000000       0xdc /opt/blocksds/external/nflib/lib/libnflib.a(nf_sprite256.c.o)
 .rodata.NF_DeleteSprite.str1.4
                0x00000000        0x3 /opt/blocksds/external/nflib/lib/libnflib.a(nf_sprite256.c.o)
 .text.NF_DeleteSprite
                0x00000000       0x80 /opt/blocksds/external/nflib/lib/libnflib.a(nf_sprite256.c.o)
 .text.NF_SpriteSetPalColor
                0x00000000       0x80 /opt/blocksds/external/nflib/lib/libnflib.a(nf_sprite256.c.o)
 .text.NF_SpriteEditPalColor
                0x00000000       0x54 /opt/blocksds/external/nflib/lib/libnflib.a(nf_sprite256.c.o)
 .text.NF_SpriteUpdatePalette
                0x00000000       0x88 /opt/blocksds/external/nflib/lib/libnflib.a(nf_sprite256.c.o)
 .text.NF_SpriteGetPalColor
                0x00000000       0x58 /opt/blocksds/external/nflib/lib/libnflib.a(nf_sprite256.c.o)
 .text          0x00000000        0x0 /opt/blocksds/core/libs/libnds/lib/libnds9.a(IntrWait.s.o)
 .data          0x00000000        0x0 /opt/blocksds/core/libs/libnds/lib/libnds9.a(IntrWait.s.o)
 .bss           0x00000000        0x0 /opt/blocksds/core/libs/libnds/lib/libnds9.a(IntrWait.s.o)
 .text          0x00000000        0x0 /opt/blocksds/core/libs/libnds/lib/libnds9.a(mpu_setup.s.o)
 .bss           0x00000000        0x0 /opt/blocksds/core/libs/libnds/lib/libnds9.a(mpu_setup.s.o)
 .text.memCached
                0x00000000       0x20 /opt/blocksds/core/libs/libnds/lib/libnds9.a(mpu_setup.s.o)
 .text.peripheralSlot2EnableCache
                0x00000000       0x3c /opt/blocksds/core/libs/libnds/lib/libnds9.a(mpu_setup.s.o)
 .text.peripheralSlot2DisableCache
                0x00000000       0x48 /opt/blocksds/core/libs/libnds/lib/libnds9.a(mpu_setup.s.o)
 .text          0x00000000        0x0 /opt/blocksds/core/libs/libnds/lib/libnds9.a(cp15.s.o)
 .data          0x00000000        0x0 /opt/blocksds/core/libs/libnds/lib/libnds9.a(cp15.s.o)
 .bss           0x00000000        0x0 /opt/blocksds/core/libs/libnds/lib/libnds9.a(cp15.s.o)
 .text.CP15_GetID
                0x00000000        0x8 /opt/blocksds/core/libs/libnds/lib/libnds9.a(cp15.s.o)
 .text.CP15_GetCacheType
                0x00000000        0x8 /opt/blocksds/core/libs/libnds/lib/libnds9.a(cp15.s.o)
 .text.CP15_GetTCMSize
                0x00000000        0x8 /opt/blocksds/core/libs/libnds/lib/libnds9.a(cp15.s.o)
 .text.CP15_GetControl
                0x00000000        0x8 /opt/blocksds/core/libs/libnds/lib/libnds9.a(cp15.s.o)
 .text.CP15_SetControl
                0x00000000        0x8 /opt/blocksds/core/libs/libnds/lib/libnds9.a(cp15.s.o)
 .text.CP15_GetDataCachable
                0x00000000        0x8 /opt/blocksds/core/libs/libnds/lib/libnds9.a(cp15.s.o)
 .text.CP15_GetInstructionCachable
                0x00000000        0x8 /opt/blocksds/core/libs/libnds/lib/libnds9.a(cp15.s.o)
 .text.CP15_SetDataCachable
                0x00000000        0x8 /opt/blocksds/core/libs/libnds/lib/libnds9.a(cp15.s.o)
 .text.CP15_SetInstructionCachable
                0x00000000        0x8 /opt/blocksds/core/libs/libnds/lib/libnds9.a(cp15.s.o)
 .text.CP15_GetDataBufferable
                0x00000000        0x8 /opt/blocksds/core/libs/libnds/lib/libnds9.a(cp15.s.o)
 .text.CP15_SetDataBufferable
                0x00000000        0x8 /opt/blocksds/core/libs/libnds/lib/libnds9.a(cp15.s.o)
 .text.CP15_GetDataPermissions
                0x00000000        0x8 /opt/blocksds/core/libs/libnds/lib/libnds9.a(cp15.s.o)
 .text.CP15_GetInstructionPermissions
                0x00000000        0x8 /opt/blocksds/core/libs/libnds/lib/libnds9.a(cp15.s.o)
 .text.CP15_SetDataPermissions
                0x00000000        0x8 /opt/blocksds/core/libs/libnds/lib/libnds9.a(cp15.s.o)
 .text.CP15_SetInstructionPermissions
                0x00000000        0x8 /opt/blocksds/core/libs/libnds/lib/libnds9.a(cp15.s.o)
 .text.CP15_GetRegion0
                0x00000000        0x8 /opt/blocksds/core/libs/libnds/lib/libnds9.a(cp15.s.o)
 .text.CP15_GetRegion1
                0x00000000        0x8 /opt/blocksds/core/libs/libnds/lib/libnds9.a(cp15.s.o)
 .text.CP15_GetRegion2
                0x00000000        0x8 /opt/blocksds/core/libs/libnds/lib/libnds9.a(cp15.s.o)
 .text.CP15_GetRegion3
                0x00000000        0x8 /opt/blocksds/core/libs/libnds/lib/libnds9.a(cp15.s.o)
 .text.CP15_GetRegion4
                0x00000000        0x8 /opt/blocksds/core/libs/libnds/lib/libnds9.a(cp15.s.o)
 .text.CP15_GetRegion5
                0x00000000        0x8 /opt/blocksds/core/libs/libnds/lib/libnds9.a(cp15.s.o)
 .text.CP15_GetRegion6
                0x00000000        0x8 /opt/blocksds/core/libs/libnds/lib/libnds9.a(cp15.s.o)
 .text.CP15_GetRegion7
                0x00000000        0x8 /opt/blocksds/core/libs/libnds/lib/libnds9.a(cp15.s.o)
 .text.CP15_SetRegion0
                0x00000000        0x8 /opt/blocksds/core/libs/libnds/lib/libnds9.a(cp15.s.o)
 .text.CP15_SetRegion1
                0x00000000        0x8 /opt/blocksds/core/libs/libnds/lib/libnds9.a(cp15.s.o)
 .text.CP15_SetRegion2
                0x00000000        0x8 /opt/blocksds/core/libs/libnds/lib/libnds9.a(cp15.s.o)
 .text.CP15_SetRegion3
                0x00000000        0x8 /opt/blocksds/core/libs/libnds/lib/libnds9.a(cp15.s.o)
 .text.CP15_SetRegion4
                0x00000000        0x8 /opt/blocksds/core/libs/libnds/lib/libnds9.a(cp15.s.o)
 .text.CP15_SetRegion5
                0x00000000        0x8 /opt/blocksds/core/libs/libnds/lib/libnds9.a(cp15.s.o)
 .text.CP15_SetRegion6
                0x00000000        0x8 /opt/blocksds/core/libs/libnds/lib/libnds9.a(cp15.s.o)
 .text.CP15_SetRegion7
                0x00000000        0x8 /opt/blocksds/core/libs/libnds/lib/libnds9.a(cp15.s.o)
 .text.CP15_FlushICacheEntry
                0x00000000        0x8 /opt/blocksds/core/libs/libnds/lib/libnds9.a(cp15.s.o)
 .text.CP15_PrefetchICacheLine
                0x00000000        0x8 /opt/blocksds/core/libs/libnds/lib/libnds9.a(cp15.s.o)
 .text.CP15_FlushDCacheEntry
                0x00000000        0x8 /opt/blocksds/core/libs/libnds/lib/libnds9.a(cp15.s.o)
 .text.CP15_CleanDCacheEntry
                0x00000000        0x8 /opt/blocksds/core/libs/libnds/lib/libnds9.a(cp15.s.o)
 .text.CP15_CleanAndFlushDCacheEntry
                0x00000000        0x8 /opt/blocksds/core/libs/libnds/lib/libnds9.a(cp15.s.o)
 .text.CP15_CleanDCacheEntryByIndex
                0x00000000        0x8 /opt/blocksds/core/libs/libnds/lib/libnds9.a(cp15.s.o)
 .text.CP15_CleanAndFlushDCacheEntryByIndex
                0x00000000        0x8 /opt/blocksds/core/libs/libnds/lib/libnds9.a(cp15.s.o)
 .text.CP15_DrainWriteBuffer
                0x00000000        0xc /opt/blocksds/core/libs/libnds/lib/libnds9.a(cp15.s.o)
 .text.CP15_GetDCacheLockdown
                0x00000000        0x8 /opt/blocksds/core/libs/libnds/lib/libnds9.a(cp15.s.o)
 .text.CP15_GetICacheLockdown
                0x00000000        0x8 /opt/blocksds/core/libs/libnds/lib/libnds9.a(cp15.s.o)
 .text.CP15_SetDCacheLockdown
                0x00000000        0x8 /opt/blocksds/core/libs/libnds/lib/libnds9.a(cp15.s.o)
 .text.CP15_SetICacheLockdown
                0x00000000        0x8 /opt/blocksds/core/libs/libnds/lib/libnds9.a(cp15.s.o)
 .text.CP15_GetDTCM
                0x00000000        0x8 /opt/blocksds/core/libs/libnds/lib/libnds9.a(cp15.s.o)
 .text.CP15_GetITCM
                0x00000000        0x8 /opt/blocksds/core/libs/libnds/lib/libnds9.a(cp15.s.o)
 .text.CP15_SetDTCM
                0x00000000        0x8 /opt/blocksds/core/libs/libnds/lib/libnds9.a(cp15.s.o)
 .text.CP15_SetITCM
                0x00000000        0x8 /opt/blocksds/core/libs/libnds/lib/libnds9.a(cp15.s.o)
 .text          0x00000000        0x0 /opt/blocksds/core/libs/libnds/lib/libnds9.a(dma.s.o)
 .data          0x00000000        0x0 /opt/blocksds/core/libs/libnds/lib/libnds9.a(dma.s.o)
 .bss           0x00000000        0x0 /opt/blocksds/core/libs/libnds/lib/libnds9.a(dma.s.o)
 .itcm          0x00000000        0x0 /opt/blocksds/core/libs/libnds/lib/libnds9.a(dma.s.o)
 .text.dmaStopSafe
                0x00000000       0x44 /opt/blocksds/core/libs/libnds/lib/libnds9.a(dma.s.o)
 .text          0x00000000        0x0 /opt/blocksds/core/libs/libnds/lib/libnds9.a(memset.s.o)
 .data          0x00000000        0x0 /opt/blocksds/core/libs/libnds/lib/libnds9.a(memset.s.o)
 .bss           0x00000000        0x0 /opt/blocksds/core/libs/libnds/lib/libnds9.a(memset.s.o)
 .text.__aeabi_memclr
                0x00000000        0x8 /opt/blocksds/core/libs/libnds/lib/libnds9.a(memset.s.o)
 .text.__aeabi_memclr8
                0x00000000        0x8 /opt/blocksds/core/libs/libnds/lib/libnds9.a(memset.s.o)
 .text          0x00000000        0x0 /opt/blocksds/core/libs/libnds/lib/libnds9.a(memcpy.s.o)
 .data          0x00000000        0x0 /opt/blocksds/core/libs/libnds/lib/libnds9.a(memcpy.s.o)
 .bss           0x00000000        0x0 /opt/blocksds/core/libs/libnds/lib/libnds9.a(memcpy.s.o)
 .text          0x00000000        0x0 /opt/blocksds/core/libs/libnds/lib/libnds9.a(console.c.o)
 .data          0x00000000        0x0 /opt/blocksds/core/libs/libnds/lib/libnds9.a(console.c.o)
 .bss           0x00000000        0x0 /opt/blocksds/core/libs/libnds/lib/libnds9.a(console.c.o)
 .text.nocash_write
                0x00000000       0x1c /opt/blocksds/core/libs/libnds/lib/libnds9.a(console.c.o)
 .text.consoleGetDefault
                0x00000000        0x8 /opt/blocksds/core/libs/libnds/lib/libnds9.a(console.c.o)
 .text.consoleSelect
                0x00000000       0x28 /opt/blocksds/core/libs/libnds/lib/libnds9.a(console.c.o)
 .text.consoleDebugInit
                0x00000000       0x44 /opt/blocksds/core/libs/libnds/lib/libnds9.a(console.c.o)
 .text.consoleSetFont
                0x00000000       0x20 /opt/blocksds/core/libs/libnds/lib/libnds9.a(console.c.o)
 .text.consoleInit
                0x00000000       0x28 /opt/blocksds/core/libs/libnds/lib/libnds9.a(console.c.o)
 .text.consoleClear
                0x00000000       0x48 /opt/blocksds/core/libs/libnds/lib/libnds9.a(console.c.o)
 .text.consoleAddToCursor
                0x00000000       0x3c /opt/blocksds/core/libs/libnds/lib/libnds9.a(console.c.o)
 .text.consoleGetCursor
                0x00000000       0x24 /opt/blocksds/core/libs/libnds/lib/libnds9.a(console.c.o)
 .text.consoleSetColor
                0x00000000       0x18 /opt/blocksds/core/libs/libnds/lib/libnds9.a(console.c.o)
 .text.consoleSetWindow
                0x00000000       0x20 /opt/blocksds/core/libs/libnds/lib/libnds9.a(console.c.o)
 .text.consoleSetCustomStdout
                0x00000000       0x18 /opt/blocksds/core/libs/libnds/lib/libnds9.a(console.c.o)
 .text.consoleSetCustomStderr
                0x00000000       0x18 /opt/blocksds/core/libs/libnds/lib/libnds9.a(console.c.o)
 .text.consoleArm7Setup
                0x00000000       0x78 /opt/blocksds/core/libs/libnds/lib/libnds9.a(console.c.o)
 .text.consoleArm7Disable
                0x00000000       0x44 /opt/blocksds/core/libs/libnds/lib/libnds9.a(console.c.o)
 .rodata.defaultConsole
                0x00000000       0x40 /opt/blocksds/core/libs/libnds/lib/libnds9.a(console.c.o)
 .text          0x00000000        0x0 /opt/blocksds/core/libs/libnds/lib/libnds9.a(background.c.o)
 .data          0x00000000        0x0 /opt/blocksds/core/libs/libnds/lib/libnds9.a(background.c.o)
 .bss           0x00000000        0x0 /opt/blocksds/core/libs/libnds/lib/libnds9.a(background.c.o)
 .text.bgIsText
                0x00000000        0xc /opt/blocksds/core/libs/libnds/lib/libnds9.a(background.c.o)
 .text          0x00000000        0x0 /opt/blocksds/core/libs/libnds/lib/libnds9.a(sprite.c.o)
 .data          0x00000000        0x0 /opt/blocksds/core/libs/libnds/lib/libnds9.a(sprite.c.o)
 .bss           0x00000000        0x0 /opt/blocksds/core/libs/libnds/lib/libnds9.a(sprite.c.o)
 .text.oamDisable
                0x00000000       0x2c /opt/blocksds/core/libs/libnds/lib/libnds9.a(sprite.c.o)
 .text.oamEnable
                0x00000000       0x24 /opt/blocksds/core/libs/libnds/lib/libnds9.a(sprite.c.o)
 .text.oamGetGfxPtr
                0x00000000       0x38 /opt/blocksds/core/libs/libnds/lib/libnds9.a(sprite.c.o)
 .text.oamClear
                0x00000000       0x24 /opt/blocksds/core/libs/libnds/lib/libnds9.a(sprite.c.o)
 .text.oamDimensionsToSize
                0x00000000       0xbc /opt/blocksds/core/libs/libnds/lib/libnds9.a(sprite.c.o)
 .text.oamSetGfx
                0x00000000       0x88 /opt/blocksds/core/libs/libnds/lib/libnds9.a(sprite.c.o)
 .text.oamRotateScale
                0x00000000       0x4c /opt/blocksds/core/libs/libnds/lib/libnds9.a(sprite.c.o)
 .text          0x00000000        0x0 /opt/blocksds/core/libs/libnds/lib/libnds9.a(video.c.o)
 .data          0x00000000        0x0 /opt/blocksds/core/libs/libnds/lib/libnds9.a(video.c.o)
 .bss           0x00000000        0x0 /opt/blocksds/core/libs/libnds/lib/libnds9.a(video.c.o)
 .text.vramSetPrimaryBanks
                0x00000000       0x44 /opt/blocksds/core/libs/libnds/lib/libnds9.a(video.c.o)
 .text.vramSetBanks_EFG
                0x00000000       0x38 /opt/blocksds/core/libs/libnds/lib/libnds9.a(video.c.o)
 .text          0x00000000        0x0 /opt/blocksds/core/libs/libnds/lib/libnds9.a(cache.c.o)
 .data          0x00000000        0x0 /opt/blocksds/core/libs/libnds/lib/libnds9.a(cache.c.o)
 .bss           0x00000000        0x0 /opt/blocksds/core/libs/libnds/lib/libnds9.a(cache.c.o)
 .text          0x00000000        0x0 /opt/blocksds/core/libs/libnds/lib/libnds9.a(initSystem.c.o)
 .data          0x00000000        0x0 /opt/blocksds/core/libs/libnds/lib/libnds9.a(initSystem.c.o)
 .bss           0x00000000        0x0 /opt/blocksds/core/libs/libnds/lib/libnds9.a(initSystem.c.o)
 .text          0x00000000        0x0 /opt/blocksds/core/libs/libnds/lib/libnds9.a(keys.c.o)
 .data          0x00000000        0x0 /opt/blocksds/core/libs/libnds/lib/libnds9.a(keys.c.o)
 .bss           0x00000000        0x0 /opt/blocksds/core/libs/libnds/lib/libnds9.a(keys.c.o)
 .text.keysDown
                0x00000000       0x14 /opt/blocksds/core/libs/libnds/lib/libnds9.a(keys.c.o)
 .text.keysDownRepeat
                0x00000000       0x10 /opt/blocksds/core/libs/libnds/lib/libnds9.a(keys.c.o)
 .text.keysSetRepeat
                0x00000000       0x24 /opt/blocksds/core/libs/libnds/lib/libnds9.a(keys.c.o)
 .text.keysUp   0x00000000       0x18 /opt/blocksds/core/libs/libnds/lib/libnds9.a(keys.c.o)
 .text          0x00000000        0x0 /opt/blocksds/core/libs/libnds/lib/libnds9.a(system.c.o)
 .data          0x00000000        0x0 /opt/blocksds/core/libs/libnds/lib/libnds9.a(system.c.o)
 .bss           0x00000000        0x0 /opt/blocksds/core/libs/libnds/lib/libnds9.a(system.c.o)
 .text.setSDcallback
                0x00000000        0xc /opt/blocksds/core/libs/libnds/lib/libnds9.a(system.c.o)
 .text.systemSleep
                0x00000000       0x18 /opt/blocksds/core/libs/libnds/lib/libnds9.a(system.c.o)
 .text.enableSleep
                0x00000000       0x10 /opt/blocksds/core/libs/libnds/lib/libnds9.a(system.c.o)
 .text.disableSleep
                0x00000000       0x10 /opt/blocksds/core/libs/libnds/lib/libnds9.a(system.c.o)
 .text.powerOff
                0x00000000       0x28 /opt/blocksds/core/libs/libnds/lib/libnds9.a(system.c.o)
 .text.ledBlink
                0x00000000       0x10 /opt/blocksds/core/libs/libnds/lib/libnds9.a(system.c.o)
 .text.getBatteryLevel
                0x00000000       0x2c /opt/blocksds/core/libs/libnds/lib/libnds9.a(system.c.o)
 .text.enableSlot1
                0x00000000       0x1c /opt/blocksds/core/libs/libnds/lib/libnds9.a(system.c.o)
 .text.disableSlot1
                0x00000000       0x1c /opt/blocksds/core/libs/libnds/lib/libnds9.a(system.c.o)
 .text          0x00000000        0x0 /opt/blocksds/core/libs/libnds/lib/libnds9.a(securearea.c.o)
 .data          0x00000000        0x0 /opt/blocksds/core/libs/libnds/lib/libnds9.a(securearea.c.o)
 .bss           0x00000000        0x0 /opt/blocksds/core/libs/libnds/lib/libnds9.a(securearea.c.o)
 .text          0x00000000        0x0 /opt/blocksds/core/libs/libnds/lib/libnds9.a(exceptions.c.o)
 .data          0x00000000        0x0 /opt/blocksds/core/libs/libnds/lib/libnds9.a(exceptions.c.o)
 .bss           0x00000000        0x0 /opt/blocksds/core/libs/libnds/lib/libnds9.a(exceptions.c.o)
 .rodata.guruMeditationDump.str1.4
                0x00000000       0x1b /opt/blocksds/core/libs/libnds/lib/libnds9.a(exceptions.c.o)
 .text.guruMeditationDump
                0x00000000      0x168 /opt/blocksds/core/libs/libnds/lib/libnds9.a(exceptions.c.o)
 .text.defaultHandler
                0x00000000        0x8 /opt/blocksds/core/libs/libnds/lib/libnds9.a(exceptions.c.o)
 .text.defaultExceptionHandler
                0x00000000       0x10 /opt/blocksds/core/libs/libnds/lib/libnds9.a(exceptions.c.o)
 .text          0x00000000        0x0 /opt/blocksds/core/libs/libnds/lib/libnds9.a(chdir.c.o)
 .data          0x00000000        0x0 /opt/blocksds/core/libs/libnds/lib/libnds9.a(chdir.c.o)
 .bss           0x00000000        0x0 /opt/blocksds/core/libs/libnds/lib/libnds9.a(chdir.c.o)
 .text.getcwd   0x00000000       0xcc /opt/blocksds/core/libs/libnds/lib/libnds9.a(chdir.c.o)
 .text.getwd    0x00000000        0xc /opt/blocksds/core/libs/libnds/lib/libnds9.a(chdir.c.o)
 .text.get_current_dir_name
                0x00000000       0x4c /opt/blocksds/core/libs/libnds/lib/libnds9.a(chdir.c.o)
 .text          0x00000000        0x0 /opt/blocksds/core/libs/libnds/lib/libnds9.a(nitrofs.c.o)
 .data          0x00000000        0x0 /opt/blocksds/core/libs/libnds/lib/libnds9.a(nitrofs.c.o)
 .bss           0x00000000        0x0 /opt/blocksds/core/libs/libnds/lib/libnds9.a(nitrofs.c.o)
 .text.nitrofs_rewinddir
                0x00000000       0x14 /opt/blocksds/core/libs/libnds/lib/libnds9.a(nitrofs.c.o)
 .text.nitrofs_readdir
                0x00000000       0xc0 /opt/blocksds/core/libs/libnds/lib/libnds9.a(nitrofs.c.o)
 .text.nitrofs_opendir
                0x00000000       0x54 /opt/blocksds/core/libs/libnds/lib/libnds9.a(nitrofs.c.o)
 .rodata.nitrofs_getcwd.str1.4
                0x00000000        0x7 /opt/blocksds/core/libs/libnds/lib/libnds9.a(nitrofs.c.o)
 .text.nitrofs_getcwd
                0x00000000      0x194 /opt/blocksds/core/libs/libnds/lib/libnds9.a(nitrofs.c.o)
 .text.nitroFSFopenById
                0x00000000       0x18 /opt/blocksds/core/libs/libnds/lib/libnds9.a(nitrofs.c.o)
 .text.nitrofs_fat_get_attr
                0x00000000       0x54 /opt/blocksds/core/libs/libnds/lib/libnds9.a(nitrofs.c.o)
 .text.nitrofs_stat
                0x00000000       0xa4 /opt/blocksds/core/libs/libnds/lib/libnds9.a(nitrofs.c.o)
 .text.nitrofs_fstat
                0x00000000       0x3c /opt/blocksds/core/libs/libnds/lib/libnds9.a(nitrofs.c.o)
 .text.nitroFSExit
                0x00000000       0x2c /opt/blocksds/core/libs/libnds/lib/libnds9.a(nitrofs.c.o)
 .text.nitroFSInitLookupCache
                0x00000000       0x28 /opt/blocksds/core/libs/libnds/lib/libnds9.a(nitrofs.c.o)
 .rodata.DTCM_END
                0x00000000        0x4 /opt/blocksds/core/libs/libnds/lib/libnds9.a(nitrofs.c.o)
 .rodata.DTCM_START
                0x00000000        0x4 /opt/blocksds/core/libs/libnds/lib/libnds9.a(nitrofs.c.o)
 .text          0x00000000        0x0 /opt/blocksds/core/libs/libnds/lib/libnds9.a(iob.c.o)
 .data          0x00000000        0x0 /opt/blocksds/core/libs/libnds/lib/libnds9.a(iob.c.o)
 .bss           0x00000000        0x0 /opt/blocksds/core/libs/libnds/lib/libnds9.a(iob.c.o)
 .text          0x00000000        0x0 /opt/blocksds/core/libs/libnds/lib/libnds9.a(fatfs.c.o)
 .data          0x00000000        0x0 /opt/blocksds/core/libs/libnds/lib/libnds9.a(fatfs.c.o)
 .bss           0x00000000        0x0 /opt/blocksds/core/libs/libnds/lib/libnds9.a(fatfs.c.o)
 .text.fatGetDefaultDrive
                0x00000000       0x68 /opt/blocksds/core/libs/libnds/lib/libnds9.a(fatfs.c.o)
 .text.fatInit  0x00000000       0x20 /opt/blocksds/core/libs/libnds/lib/libnds9.a(fatfs.c.o)
 .text          0x00000000        0x0 /opt/blocksds/core/libs/libnds/lib/libnds9.a(crt0_argv.c.o)
 .data          0x00000000        0x0 /opt/blocksds/core/libs/libnds/lib/libnds9.a(crt0_argv.c.o)
 .bss           0x00000000        0x0 /opt/blocksds/core/libs/libnds/lib/libnds9.a(crt0_argv.c.o)
 .text          0x00000000        0x0 /opt/blocksds/core/libs/libnds/lib/libnds9.a(filesystem.c.o)
 .data          0x00000000        0x0 /opt/blocksds/core/libs/libnds/lib/libnds9.a(filesystem.c.o)
 .bss           0x00000000        0x0 /opt/blocksds/core/libs/libnds/lib/libnds9.a(filesystem.c.o)
 .text.ftruncate_internal
                0x00000000       0xf0 /opt/blocksds/core/libs/libnds/lib/libnds9.a(filesystem.c.o)
 .text.lseek64  0x00000000       0x7c /opt/blocksds/core/libs/libnds/lib/libnds9.a(filesystem.c.o)
 .text.unlink   0x00000000       0x30 /opt/blocksds/core/libs/libnds/lib/libnds9.a(filesystem.c.o)
 .text.rmdir    0x00000000       0x30 /opt/blocksds/core/libs/libnds/lib/libnds9.a(filesystem.c.o)
 .text.stat     0x00000000       0xe0 /opt/blocksds/core/libs/libnds/lib/libnds9.a(filesystem.c.o)
 .text.fstat    0x00000000       0x54 /opt/blocksds/core/libs/libnds/lib/libnds9.a(filesystem.c.o)
 .text.isatty   0x00000000        0x4 /opt/blocksds/core/libs/libnds/lib/libnds9.a(filesystem.c.o)
 .text.link     0x00000000       0x1c /opt/blocksds/core/libs/libnds/lib/libnds9.a(filesystem.c.o)
 .text.rename   0x00000000       0x30 /opt/blocksds/core/libs/libnds/lib/libnds9.a(filesystem.c.o)
 .text.ftruncate
                0x00000000       0x58 /opt/blocksds/core/libs/libnds/lib/libnds9.a(filesystem.c.o)
 .text.truncate
                0x00000000       0x3c /opt/blocksds/core/libs/libnds/lib/libnds9.a(filesystem.c.o)
 .text.mkdir    0x00000000       0x30 /opt/blocksds/core/libs/libnds/lib/libnds9.a(filesystem.c.o)
 .text.chmod    0x00000000       0x1c /opt/blocksds/core/libs/libnds/lib/libnds9.a(filesystem.c.o)
 .text.fchmod   0x00000000       0x1c /opt/blocksds/core/libs/libnds/lib/libnds9.a(filesystem.c.o)
 .text.fchmodat
                0x00000000       0x1c /opt/blocksds/core/libs/libnds/lib/libnds9.a(filesystem.c.o)
 .text.chown    0x00000000       0x1c /opt/blocksds/core/libs/libnds/lib/libnds9.a(filesystem.c.o)
 .text.fchown   0x00000000       0x1c /opt/blocksds/core/libs/libnds/lib/libnds9.a(filesystem.c.o)
 .text.fchownat
                0x00000000       0x1c /opt/blocksds/core/libs/libnds/lib/libnds9.a(filesystem.c.o)
 .text.readlink
                0x00000000       0x1c /opt/blocksds/core/libs/libnds/lib/libnds9.a(filesystem.c.o)
 .text.symlink  0x00000000       0x1c /opt/blocksds/core/libs/libnds/lib/libnds9.a(filesystem.c.o)
 .text.FAT_getAttr
                0x00000000       0x54 /opt/blocksds/core/libs/libnds/lib/libnds9.a(filesystem.c.o)
 .text.FAT_setAttr
                0x00000000       0x54 /opt/blocksds/core/libs/libnds/lib/libnds9.a(filesystem.c.o)
 .text          0x00000000        0x0 /opt/blocksds/core/libs/libnds/lib/libnds9.a(cache.c.o)
 .data          0x00000000        0x0 /opt/blocksds/core/libs/libnds/lib/libnds9.a(cache.c.o)
 .bss           0x00000000        0x0 /opt/blocksds/core/libs/libnds/lib/libnds9.a(cache.c.o)
 .text          0x00000000        0x0 /opt/blocksds/core/libs/libnds/lib/libnds9.a(debugprint.c.o)
 .data          0x00000000        0x0 /opt/blocksds/core/libs/libnds/lib/libnds9.a(debugprint.c.o)
 .bss           0x00000000        0x0 /opt/blocksds/core/libs/libnds/lib/libnds9.a(debugprint.c.o)
 .text.nocash_putc_buffered
                0x00000000       0x34 /opt/blocksds/core/libs/libnds/lib/libnds9.a(debugprint.c.o)
 .bss.nocash_buf_len
                0x00000000        0x1 /opt/blocksds/core/libs/libnds/lib/libnds9.a(debugprint.c.o)
 .bss.nocash_buf
                0x00000000       0x78 /opt/blocksds/core/libs/libnds/lib/libnds9.a(debugprint.c.o)
 .comment       0x00000000       0x23 /opt/blocksds/core/libs/libnds/lib/libnds9.a(debugprint.c.o)
 .text          0x00000000        0x0 /opt/blocksds/core/libs/libnds/lib/libnds9.a(threads.c.o)
 .data          0x00000000        0x0 /opt/blocksds/core/libs/libnds/lib/libnds9.a(threads.c.o)
 .bss           0x00000000        0x0 /opt/blocksds/core/libs/libnds/lib/libnds9.a(threads.c.o)
 .text.cothread_delete
                0x00000000       0x44 /opt/blocksds/core/libs/libnds/lib/libnds9.a(threads.c.o)
 .text.cothread_create_manual
                0x00000000       0xd0 /opt/blocksds/core/libs/libnds/lib/libnds9.a(threads.c.o)
 .text.cothread_create
                0x00000000       0x80 /opt/blocksds/core/libs/libnds/lib/libnds9.a(threads.c.o)
 .text.cothread_detach
                0x00000000       0x38 /opt/blocksds/core/libs/libnds/lib/libnds9.a(threads.c.o)
 .text.cothread_has_joined
                0x00000000       0x30 /opt/blocksds/core/libs/libnds/lib/libnds9.a(threads.c.o)
 .text.cothread_get_exit_code
                0x00000000       0x3c /opt/blocksds/core/libs/libnds/lib/libnds9.a(threads.c.o)
 .text.cothread_get_current
                0x00000000        0xc /opt/blocksds/core/libs/libnds/lib/libnds9.a(threads.c.o)
 .text          0x00000000        0x0 /opt/blocksds/core/libs/libnds/lib/libnds9.a(interrupts.c.o)
 .data          0x00000000        0x0 /opt/blocksds/core/libs/libnds/lib/libnds9.a(interrupts.c.o)
 .bss           0x00000000        0x0 /opt/blocksds/core/libs/libnds/lib/libnds9.a(interrupts.c.o)
 .text.irqInitHandler
                0x00000000       0x28 /opt/blocksds/core/libs/libnds/lib/libnds9.a(interrupts.c.o)
 .text.irqDisable
                0x00000000       0x64 /opt/blocksds/core/libs/libnds/lib/libnds9.a(interrupts.c.o)
 .text.irqClear
                0x00000000       0x60 /opt/blocksds/core/libs/libnds/lib/libnds9.a(interrupts.c.o)
 .text          0x00000000        0x0 /opt/blocksds/core/libs/libnds/lib/libnds9.a(exceptions.c.o)
 .data          0x00000000        0x0 /opt/blocksds/core/libs/libnds/lib/libnds9.a(exceptions.c.o)
 .bss           0x00000000        0x0 /opt/blocksds/core/libs/libnds/lib/libnds9.a(exceptions.c.o)
 .text.ARMShift
                0x00000000       0x50 /opt/blocksds/core/libs/libnds/lib/libnds9.a(exceptions.c.o)
 .text.getExceptionAddress
                0x00000000      0x1ac /opt/blocksds/core/libs/libnds/lib/libnds9.a(exceptions.c.o)
 .text          0x00000000        0x0 /opt/blocksds/core/libs/libnds/lib/libnds9.a(coroutine.c.o)
 .data          0x00000000        0x0 /opt/blocksds/core/libs/libnds/lib/libnds9.a(coroutine.c.o)
 .bss           0x00000000        0x0 /opt/blocksds/core/libs/libnds/lib/libnds9.a(coroutine.c.o)
 .text.__ndsabi_coro_make
                0x00000000       0x24 /opt/blocksds/core/libs/libnds/lib/libnds9.a(coroutine.c.o)
 .text          0x00000000        0x0 /opt/blocksds/core/libs/libnds/lib/libnds9.a(card.c.o)
 .data          0x00000000        0x0 /opt/blocksds/core/libs/libnds/lib/libnds9.a(card.c.o)
 .bss           0x00000000        0x0 /opt/blocksds/core/libs/libnds/lib/libnds9.a(card.c.o)
 .text.cardWriteCommand
                0x00000000       0x28 /opt/blocksds/core/libs/libnds/lib/libnds9.a(card.c.o)
 .text.cardStartTransfer
                0x00000000       0x50 /opt/blocksds/core/libs/libnds/lib/libnds9.a(card.c.o)
 .text.cardWriteAndRead
                0x00000000       0x48 /opt/blocksds/core/libs/libnds/lib/libnds9.a(card.c.o)
 .text.cardParamCommand
                0x00000000       0x30 /opt/blocksds/core/libs/libnds/lib/libnds9.a(card.c.o)
 .text.cardReadID
                0x00000000       0x5c /opt/blocksds/core/libs/libnds/lib/libnds9.a(card.c.o)
 .text.cardReset
                0x00000000       0x68 /opt/blocksds/core/libs/libnds/lib/libnds9.a(card.c.o)
 .text.cardReadHeader
                0x00000000       0x9c /opt/blocksds/core/libs/libnds/lib/libnds9.a(card.c.o)
 .rodata        0x00000000       0x10 /opt/blocksds/core/libs/libnds/lib/libnds9.a(card.c.o)
 .text          0x00000000        0x0 /opt/blocksds/core/libs/libnds/lib/libnds9.a(exit.c.o)
 .data          0x00000000        0x0 /opt/blocksds/core/libs/libnds/lib/libnds9.a(exit.c.o)
 .bss           0x00000000        0x0 /opt/blocksds/core/libs/libnds/lib/libnds9.a(exit.c.o)
 .rodata.__stack_chk_fail.str1.4
                0x00000000       0x10 /opt/blocksds/core/libs/libnds/lib/libnds9.a(exit.c.o)
 .text.__stack_chk_fail
                0x00000000        0xc /opt/blocksds/core/libs/libnds/lib/libnds9.a(exit.c.o)
 .data.__stack_chk_guard
                0x00000000        0x4 /opt/blocksds/core/libs/libnds/lib/libnds9.a(exit.c.o)
 .text          0x00000000        0x0 /opt/blocksds/core/libs/libnds/lib/libnds9.a(locks.c.o)
 .data          0x00000000        0x0 /opt/blocksds/core/libs/libnds/lib/libnds9.a(locks.c.o)
 .bss           0x00000000        0x0 /opt/blocksds/core/libs/libnds/lib/libnds9.a(locks.c.o)
 .text.__retarget_lock_init_recursive
                0x00000000       0x40 /opt/blocksds/core/libs/libnds/lib/libnds9.a(locks.c.o)
 .text.__retarget_lock_close_recursive
                0x00000000       0x30 /opt/blocksds/core/libs/libnds/lib/libnds9.a(locks.c.o)
 .text.__retarget_lock_try_acquire_recursive
                0x00000000       0x50 /opt/blocksds/core/libs/libnds/lib/libnds9.a(locks.c.o)
 .text.__retarget_lock_try_acquire
                0x00000000       0x50 /opt/blocksds/core/libs/libnds/lib/libnds9.a(locks.c.o)
 .text          0x00000000        0x0 /opt/blocksds/core/libs/libnds/lib/libnds9.a(sbrk.c.o)
 .data          0x00000000        0x0 /opt/blocksds/core/libs/libnds/lib/libnds9.a(sbrk.c.o)
 .bss           0x00000000        0x0 /opt/blocksds/core/libs/libnds/lib/libnds9.a(sbrk.c.o)
 .text          0x00000000        0x0 /opt/blocksds/core/libs/libnds/lib/libnds9.a(fifosystem.c.o)
 .data          0x00000000        0x0 /opt/blocksds/core/libs/libnds/lib/libnds9.a(fifosystem.c.o)
 .bss           0x00000000        0x0 /opt/blocksds/core/libs/libnds/lib/libnds9.a(fifosystem.c.o)
 .text.fifoSendSpecialCommand
                0x00000000       0x28 /opt/blocksds/core/libs/libnds/lib/libnds9.a(fifosystem.c.o)
 .text.fifoSendAddress
                0x00000000       0x3c /opt/blocksds/core/libs/libnds/lib/libnds9.a(fifosystem.c.o)
 .text.fifoGetAddress
                0x00000000       0x7c /opt/blocksds/core/libs/libnds/lib/libnds9.a(fifosystem.c.o)
 .text.fifoSetAddressHandler
                0x00000000       0x78 /opt/blocksds/core/libs/libnds/lib/libnds9.a(fifosystem.c.o)
 .text.fifoCheckAddress
                0x00000000       0x24 /opt/blocksds/core/libs/libnds/lib/libnds9.a(fifosystem.c.o)
 .text.fifoCheckDatamsg
                0x00000000       0x24 /opt/blocksds/core/libs/libnds/lib/libnds9.a(fifosystem.c.o)
 .text.fifoCheckDatamsgLength
                0x00000000       0x30 /opt/blocksds/core/libs/libnds/lib/libnds9.a(fifosystem.c.o)
 .text.fifoMutexTryAcquire
                0x00000000       0x20 /opt/blocksds/core/libs/libnds/lib/libnds9.a(fifosystem.c.o)
 .text          0x00000000        0x0 /opt/blocksds/core/libs/libnds/lib/libnds9.a(ff.c.o)
 .data          0x00000000        0x0 /opt/blocksds/core/libs/libnds/lib/libnds9.a(ff.c.o)
 .bss           0x00000000        0x0 /opt/blocksds/core/libs/libnds/lib/libnds9.a(ff.c.o)
 .text.dir_read.constprop.0
                0x00000000      0x180 /opt/blocksds/core/libs/libnds/lib/libnds9.a(ff.c.o)
 .text.dir_remove
                0x00000000       0x58 /opt/blocksds/core/libs/libnds/lib/libnds9.a(ff.c.o)
 .text.f_getcwd
                0x00000000      0x238 /opt/blocksds/core/libs/libnds/lib/libnds9.a(ff.c.o)
 .text.f_opendir
                0x00000000       0xd8 /opt/blocksds/core/libs/libnds/lib/libnds9.a(ff.c.o)
 .text.f_closedir
                0x00000000       0x5c /opt/blocksds/core/libs/libnds/lib/libnds9.a(ff.c.o)
 .text.f_readdir
                0x00000000       0xc8 /opt/blocksds/core/libs/libnds/lib/libnds9.a(ff.c.o)
 .text.f_getfree
                0x00000000       0xf4 /opt/blocksds/core/libs/libnds/lib/libnds9.a(ff.c.o)
 .text.f_truncate
                0x00000000      0x118 /opt/blocksds/core/libs/libnds/lib/libnds9.a(ff.c.o)
 .text.f_unlink
                0x00000000      0x10c /opt/blocksds/core/libs/libnds/lib/libnds9.a(ff.c.o)
 .text.f_mkdir  0x00000000      0x1e0 /opt/blocksds/core/libs/libnds/lib/libnds9.a(ff.c.o)
 .text.f_rename
                0x00000000      0x17c /opt/blocksds/core/libs/libnds/lib/libnds9.a(ff.c.o)
 .text.f_chmod  0x00000000       0xb8 /opt/blocksds/core/libs/libnds/lib/libnds9.a(ff.c.o)
 .text.f_utime  0x00000000       0xb4 /opt/blocksds/core/libs/libnds/lib/libnds9.a(ff.c.o)
 .rodata.VolumeStr
                0x00000000        0x8 /opt/blocksds/core/libs/libnds/lib/libnds9.a(ff.c.o)
 .text          0x00000000        0x0 /opt/blocksds/core/libs/libnds/lib/libnds9.a(ffunicode.c.o)
 .data          0x00000000        0x0 /opt/blocksds/core/libs/libnds/lib/libnds9.a(ffunicode.c.o)
 .bss           0x00000000        0x0 /opt/blocksds/core/libs/libnds/lib/libnds9.a(ffunicode.c.o)
 .text          0x00000000        0x0 /opt/blocksds/core/libs/libnds/lib/libnds9.a(default_font.png.o)
 .data          0x00000000        0x0 /opt/blocksds/core/libs/libnds/lib/libnds9.a(default_font.png.o)
 .bss           0x00000000        0x0 /opt/blocksds/core/libs/libnds/lib/libnds9.a(default_font.png.o)
 .text          0x00000000        0x0 /opt/blocksds/core/libs/libnds/lib/libnds9.a(cpu_clock.s.o)
 .data          0x00000000        0x0 /opt/blocksds/core/libs/libnds/lib/libnds9.a(cpu_clock.s.o)
 .bss           0x00000000        0x0 /opt/blocksds/core/libs/libnds/lib/libnds9.a(cpu_clock.s.o)
 .text          0x00000000        0x0 /opt/blocksds/core/libs/libnds/lib/libnds9.a(debugprint.s.o)
 .data          0x00000000        0x0 /opt/blocksds/core/libs/libnds/lib/libnds9.a(debugprint.s.o)
 .bss           0x00000000        0x0 /opt/blocksds/core/libs/libnds/lib/libnds9.a(debugprint.s.o)
 .text.nocashWrite
                0x00000000       0xa8 /opt/blocksds/core/libs/libnds/lib/libnds9.a(debugprint.s.o)
 .text          0x00000000        0x0 /opt/blocksds/core/libs/libnds/lib/libnds9.a(aeabi_read_tp.s.o)
 .data          0x00000000        0x0 /opt/blocksds/core/libs/libnds/lib/libnds9.a(aeabi_read_tp.s.o)
 .bss           0x00000000        0x0 /opt/blocksds/core/libs/libnds/lib/libnds9.a(aeabi_read_tp.s.o)
 .text          0x00000000        0x0 /opt/blocksds/core/libs/libnds/lib/libnds9.a(interruptDispatcher.s.o)
 .data          0x00000000        0x0 /opt/blocksds/core/libs/libnds/lib/libnds9.a(interruptDispatcher.s.o)
 .bss           0x00000000        0x0 /opt/blocksds/core/libs/libnds/lib/libnds9.a(interruptDispatcher.s.o)
 .text          0x00000000        0x0 /opt/blocksds/core/libs/libnds/lib/libnds9.a(cpu.s.o)
 .data          0x00000000        0x0 /opt/blocksds/core/libs/libnds/lib/libnds9.a(cpu.s.o)
 .bss           0x00000000        0x0 /opt/blocksds/core/libs/libnds/lib/libnds9.a(cpu.s.o)
 .text.setCPSR  0x00000000        0x8 /opt/blocksds/core/libs/libnds/lib/libnds9.a(cpu.s.o)
 .text          0x00000000        0x0 /opt/blocksds/core/libs/libnds/lib/libnds9.a(exceptionHandler.s.o)
 .data          0x00000000        0x0 /opt/blocksds/core/libs/libnds/lib/libnds9.a(exceptionHandler.s.o)
 .bss           0x00000000        0x0 /opt/blocksds/core/libs/libnds/lib/libnds9.a(exceptionHandler.s.o)
 .text          0x00000000        0x0 /opt/blocksds/core/libs/libnds/lib/libnds9.a(coroutine.s.o)
 .data          0x00000000        0x0 /opt/blocksds/core/libs/libnds/lib/libnds9.a(coroutine.s.o)
 .bss           0x00000000        0x0 /opt/blocksds/core/libs/libnds/lib/libnds9.a(coroutine.s.o)
 .text.__ndsabi_coro_pop
                0x00000000       0x34 /opt/blocksds/core/libs/libnds/lib/libnds9.a(coroutine.s.o)
 .text          0x00000000        0x0 /opt/blocksds/core/libs/libnds/lib/libnds9.a(card.c.o)
 .data          0x00000000        0x0 /opt/blocksds/core/libs/libnds/lib/libnds9.a(card.c.o)
 .bss           0x00000000        0x0 /opt/blocksds/core/libs/libnds/lib/libnds9.a(card.c.o)
 .text          0x00000000        0x0 /opt/blocksds/core/libs/libnds/lib/libnds9.a(dldi.c.o)
 .data          0x00000000        0x0 /opt/blocksds/core/libs/libnds/lib/libnds9.a(dldi.c.o)
 .bss           0x00000000        0x0 /opt/blocksds/core/libs/libnds/lib/libnds9.a(dldi.c.o)
 .text.dldiSetMode
                0x00000000        0xc /opt/blocksds/core/libs/libnds/lib/libnds9.a(dldi.c.o)
 .text.dldiIsValid
                0x00000000       0x38 /opt/blocksds/core/libs/libnds/lib/libnds9.a(dldi.c.o)
 .text.dldiRelocate
                0x00000000      0x118 /opt/blocksds/core/libs/libnds/lib/libnds9.a(dldi.c.o)
 .text.dldiLoadFromFile
                0x00000000       0xe0 /opt/blocksds/core/libs/libnds/lib/libnds9.a(dldi.c.o)
 .text.dldiFree
                0x00000000        0x8 /opt/blocksds/core/libs/libnds/lib/libnds9.a(dldi.c.o)
 .data.io_dldi_data
                0x00000000        0x4 /opt/blocksds/core/libs/libnds/lib/libnds9.a(dldi.c.o)
 .rodata.DLDI_MAGIC_STRING_BACKWARDS
                0x00000000        0x8 /opt/blocksds/core/libs/libnds/lib/libnds9.a(dldi.c.o)
 .rodata.DLDI_MAGIC_NUMBER
                0x00000000        0x4 /opt/blocksds/core/libs/libnds/lib/libnds9.a(dldi.c.o)
 .text          0x00000000        0x0 /opt/blocksds/core/libs/libnds/lib/libnds9.a(keyboard.c.o)
 .data          0x00000000        0x0 /opt/blocksds/core/libs/libnds/lib/libnds9.a(keyboard.c.o)
 .bss           0x00000000        0x0 /opt/blocksds/core/libs/libnds/lib/libnds9.a(keyboard.c.o)
 .text.keyboardShiftState
                0x00000000       0x14 /opt/blocksds/core/libs/libnds/lib/libnds9.a(keyboard.c.o)
 .text.swapKeyGfx
                0x00000000       0x18 /opt/blocksds/core/libs/libnds/lib/libnds9.a(keyboard.c.o)
 .text.keyboardGetDefault
                0x00000000        0x8 /opt/blocksds/core/libs/libnds/lib/libnds9.a(keyboard.c.o)
 .text.keyboardInit_call
                0x00000000      0x214 /opt/blocksds/core/libs/libnds/lib/libnds9.a(keyboard.c.o)
 .text.keyboardExit
                0x00000000       0x54 /opt/blocksds/core/libs/libnds/lib/libnds9.a(keyboard.c.o)
 .text.keyboardDemoInit
                0x00000000       0x28 /opt/blocksds/core/libs/libnds/lib/libnds9.a(keyboard.c.o)
 .text.keyboardGetChar
                0x00000000       0x58 /opt/blocksds/core/libs/libnds/lib/libnds9.a(keyboard.c.o)
 .text.keyboardGetString
                0x00000000       0x48 /opt/blocksds/core/libs/libnds/lib/libnds9.a(keyboard.c.o)
 .rodata.defaultKeyboard
                0x00000000       0x40 /opt/blocksds/core/libs/libnds/lib/libnds9.a(keyboard.c.o)
 .rodata.lowerCase
                0x00000000       0x10 /opt/blocksds/core/libs/libnds/lib/libnds9.a(keyboard.c.o)
 .rodata.capsLock
                0x00000000       0x10 /opt/blocksds/core/libs/libnds/lib/libnds9.a(keyboard.c.o)
 .rodata.SimpleKbdUpper
                0x00000000      0x140 /opt/blocksds/core/libs/libnds/lib/libnds9.a(keyboard.c.o)
 .rodata.SimpleKbdLower
                0x00000000      0x140 /opt/blocksds/core/libs/libnds/lib/libnds9.a(keyboard.c.o)
 .text          0x00000000        0x0 /opt/blocksds/core/libs/libnds/lib/libnds9.a(trig.c.o)
 .data          0x00000000        0x0 /opt/blocksds/core/libs/libnds/lib/libnds9.a(trig.c.o)
 .bss           0x00000000        0x0 /opt/blocksds/core/libs/libnds/lib/libnds9.a(trig.c.o)
 .text.asinComp
                0x00000000       0x20 /opt/blocksds/core/libs/libnds/lib/libnds9.a(trig.c.o)
 .text.tanLutLookup
                0x00000000       0x30 /opt/blocksds/core/libs/libnds/lib/libnds9.a(trig.c.o)
 .text.tanLerp  0x00000000       0xb0 /opt/blocksds/core/libs/libnds/lib/libnds9.a(trig.c.o)
 .text.asinLerp
                0x00000000       0x98 /opt/blocksds/core/libs/libnds/lib/libnds9.a(trig.c.o)
 .text.acosLerp
                0x00000000       0xa4 /opt/blocksds/core/libs/libnds/lib/libnds9.a(trig.c.o)
 .text.atanComp
                0x00000000       0x20 /opt/blocksds/core/libs/libnds/lib/libnds9.a(trig.c.o)
 .rodata.TAN_LUT
                0x00000000      0x204 /opt/blocksds/core/libs/libnds/lib/libnds9.a(trig.c.o)
 .text          0x00000000        0x0 /opt/blocksds/core/libs/libnds/lib/libnds9.a(sprite_alloc.c.o)
 .data          0x00000000        0x0 /opt/blocksds/core/libs/libnds/lib/libnds9.a(sprite_alloc.c.o)
 .bss           0x00000000        0x0 /opt/blocksds/core/libs/libnds/lib/libnds9.a(sprite_alloc.c.o)
 .text.oamAllocateGfx
                0x00000000      0x570 /opt/blocksds/core/libs/libnds/lib/libnds9.a(sprite_alloc.c.o)
 .text.oamFreeGfx
                0x00000000      0x44c /opt/blocksds/core/libs/libnds/lib/libnds9.a(sprite_alloc.c.o)
 .text.oamCountFragments
                0x00000000       0x7c /opt/blocksds/core/libs/libnds/lib/libnds9.a(sprite_alloc.c.o)
 .text          0x00000000        0x0 /opt/blocksds/core/libs/libnds/lib/libnds9.a(ffsystem.c.o)
 .data          0x00000000        0x0 /opt/blocksds/core/libs/libnds/lib/libnds9.a(ffsystem.c.o)
 .bss           0x00000000        0x0 /opt/blocksds/core/libs/libnds/lib/libnds9.a(ffsystem.c.o)
 .text          0x00000000        0x0 /opt/blocksds/core/libs/libnds/lib/libnds9.a(diskio.c.o)
 .data          0x00000000        0x0 /opt/blocksds/core/libs/libnds/lib/libnds9.a(diskio.c.o)
 .bss           0x00000000        0x0 /opt/blocksds/core/libs/libnds/lib/libnds9.a(diskio.c.o)
 .text          0x00000000        0x0 /opt/blocksds/core/libs/libnds/lib/libnds9.a(decompress.c.o)
 .data          0x00000000        0x0 /opt/blocksds/core/libs/libnds/lib/libnds9.a(decompress.c.o)
 .bss           0x00000000        0x0 /opt/blocksds/core/libs/libnds/lib/libnds9.a(decompress.c.o)
 .text.decompress_get_header
                0x00000000        0x4 /opt/blocksds/core/libs/libnds/lib/libnds9.a(decompress.c.o)
 .text.decompress_read_8
                0x00000000        0x4 /opt/blocksds/core/libs/libnds/lib/libnds9.a(decompress.c.o)
 .text.decompress_read_16
                0x00000000        0x4 /opt/blocksds/core/libs/libnds/lib/libnds9.a(decompress.c.o)
 .text.decompress_read_32
                0x00000000        0x4 /opt/blocksds/core/libs/libnds/lib/libnds9.a(decompress.c.o)
 .text.decompress
                0x00000000       0x3c /opt/blocksds/core/libs/libnds/lib/libnds9.a(decompress.c.o)
 .rodata.decompress
                0x00000000       0x14 /opt/blocksds/core/libs/libnds/lib/libnds9.a(decompress.c.o)
 .text.decompressStream
                0x00000000       0x34 /opt/blocksds/core/libs/libnds/lib/libnds9.a(decompress.c.o)
 .text.decompressStreamStruct
                0x00000000       0x28 /opt/blocksds/core/libs/libnds/lib/libnds9.a(decompress.c.o)
 .data.decomStream
                0x00000000       0x14 /opt/blocksds/core/libs/libnds/lib/libnds9.a(decompress.c.o)
 .comment       0x00000000       0x23 /opt/blocksds/core/libs/libnds/lib/libnds9.a(decompress.c.o)
 .text          0x00000000        0x0 /opt/blocksds/core/libs/libnds/lib/libnds9.a(keyboardGfx.png.o)
 .data          0x00000000        0x0 /opt/blocksds/core/libs/libnds/lib/libnds9.a(keyboardGfx.png.o)
 .bss           0x00000000        0x0 /opt/blocksds/core/libs/libnds/lib/libnds9.a(keyboardGfx.png.o)
 .rodata.keyboardGfxPal
                0x00000000       0x20 /opt/blocksds/core/libs/libnds/lib/libnds9.a(keyboardGfx.png.o)
 .rodata.keyboardGfxMap
                0x00000000      0xa00 /opt/blocksds/core/libs/libnds/lib/libnds9.a(keyboardGfx.png.o)
 .rodata.keyboardGfxTiles
                0x00000000     0x2214 /opt/blocksds/core/libs/libnds/lib/libnds9.a(keyboardGfx.png.o)
 .comment       0x00000000       0x23 /opt/blocksds/core/libs/libnds/lib/libnds9.a(keyboardGfx.png.o)
 .text          0x00000000        0x0 /opt/blocksds/core/libs/libnds/lib/libnds9.a(dldi_stub.s.o)
 .data          0x00000000        0x0 /opt/blocksds/core/libs/libnds/lib/libnds9.a(dldi_stub.s.o)
 .bss           0x00000000        0x0 /opt/blocksds/core/libs/libnds/lib/libnds9.a(dldi_stub.s.o)
 .text          0x00000000        0x0 /opt/blocksds/core/libs/libnds/lib/libnds9.a(sdmmc.twl.c.o)
 .data          0x00000000        0x0 /opt/blocksds/core/libs/libnds/lib/libnds9.a(sdmmc.twl.c.o)
 .bss           0x00000000        0x0 /opt/blocksds/core/libs/libnds/lib/libnds9.a(sdmmc.twl.c.o)
 .text.nand_GetDiskStatus
                0x00000000       0x38 /opt/blocksds/core/libs/libnds/lib/libnds9.a(sdmmc.twl.c.o)
 .text.nand_GetSectors
                0x00000000       0x38 /opt/blocksds/core/libs/libnds/lib/libnds9.a(sdmmc.twl.c.o)
 .text.sdmmc_GetSectors
                0x00000000       0x38 /opt/blocksds/core/libs/libnds/lib/libnds9.a(sdmmc.twl.c.o)
 .text.nand_Startup
                0x00000000       0x3c /opt/blocksds/core/libs/libnds/lib/libnds9.a(sdmmc.twl.c.o)
 .text.nand_IsInserted
                0x00000000        0x4 /opt/blocksds/core/libs/libnds/lib/libnds9.a(sdmmc.twl.c.o)
 .text.nand_ReadSectors
                0x00000000       0x20 /opt/blocksds/core/libs/libnds/lib/libnds9.a(sdmmc.twl.c.o)
 .text.nand_WriteSectors
                0x00000000       0x20 /opt/blocksds/core/libs/libnds/lib/libnds9.a(sdmmc.twl.c.o)
 .text          0x00000000        0x0 /opt/blocksds/core/libs/libnds/lib/libnds9.a(syscalls.c.o)
 .data          0x00000000        0x0 /opt/blocksds/core/libs/libnds/lib/libnds9.a(syscalls.c.o)
 .bss           0x00000000        0x0 /opt/blocksds/core/libs/libnds/lib/libnds9.a(syscalls.c.o)
 .text.swiDecompressLZSSVram
                0x00000000       0x18 /opt/blocksds/core/libs/libnds/lib/libnds9.a(syscalls.c.o)
 .comment       0x00000000       0x23 /opt/blocksds/core/libs/libnds/lib/libnds9.a(syscalls.c.o)
 .data          0x00000000        0x0 /opt/wonderful/toolchain/gcc-arm-none-eabi/lib/gcc/arm-none-eabi/14.2.0/../../../../arm-none-eabi/lib/thumb/arm946e-s/libc.a(strcmp.S.o)
 .bss           0x00000000        0x0 /opt/wonderful/toolchain/gcc-arm-none-eabi/lib/gcc/arm-none-eabi/14.2.0/../../../../arm-none-eabi/lib/thumb/arm946e-s/libc.a(strcmp.S.o)
 .text          0x00000000       0x10 /opt/wonderful/toolchain/gcc-arm-none-eabi/lib/gcc/arm-none-eabi/14.2.0/../../../../arm-none-eabi/lib/thumb/arm946e-s/libc.a(strcpy.S.o)
 .data          0x00000000        0x0 /opt/wonderful/toolchain/gcc-arm-none-eabi/lib/gcc/arm-none-eabi/14.2.0/../../../../arm-none-eabi/lib/thumb/arm946e-s/libc.a(strcpy.S.o)
 .bss           0x00000000        0x0 /opt/wonderful/toolchain/gcc-arm-none-eabi/lib/gcc/arm-none-eabi/14.2.0/../../../../arm-none-eabi/lib/thumb/arm946e-s/libc.a(strcpy.S.o)
 .ARM.extab     0x00000000        0x0 /opt/wonderful/toolchain/gcc-arm-none-eabi/lib/gcc/arm-none-eabi/14.2.0/../../../../arm-none-eabi/lib/thumb/arm946e-s/libc.a(strcpy.S.o)
 .ARM.exidx     0x00000000        0x8 /opt/wonderful/toolchain/gcc-arm-none-eabi/lib/gcc/arm-none-eabi/14.2.0/../../../../arm-none-eabi/lib/thumb/arm946e-s/libc.a(strcpy.S.o)
 .debug_line    0x00000000       0x51 /opt/wonderful/toolchain/gcc-arm-none-eabi/lib/gcc/arm-none-eabi/14.2.0/../../../../arm-none-eabi/lib/thumb/arm946e-s/libc.a(strcpy.S.o)
 .debug_line_str
                0x00000000       0x7d /opt/wonderful/toolchain/gcc-arm-none-eabi/lib/gcc/arm-none-eabi/14.2.0/../../../../arm-none-eabi/lib/thumb/arm946e-s/libc.a(strcpy.S.o)
 .debug_info    0x00000000       0x31 /opt/wonderful/toolchain/gcc-arm-none-eabi/lib/gcc/arm-none-eabi/14.2.0/../../../../arm-none-eabi/lib/thumb/arm946e-s/libc.a(strcpy.S.o)
 .debug_abbrev  0x00000000       0x28 /opt/wonderful/toolchain/gcc-arm-none-eabi/lib/gcc/arm-none-eabi/14.2.0/../../../../arm-none-eabi/lib/thumb/arm946e-s/libc.a(strcpy.S.o)
 .debug_aranges
                0x00000000       0x20 /opt/wonderful/toolchain/gcc-arm-none-eabi/lib/gcc/arm-none-eabi/14.2.0/../../../../arm-none-eabi/lib/thumb/arm946e-s/libc.a(strcpy.S.o)
 .debug_str     0x00000000       0x90 /opt/wonderful/toolchain/gcc-arm-none-eabi/lib/gcc/arm-none-eabi/14.2.0/../../../../arm-none-eabi/lib/thumb/arm946e-s/libc.a(strcpy.S.o)
 .debug_frame   0x00000000       0x20 /opt/wonderful/toolchain/gcc-arm-none-eabi/lib/gcc/arm-none-eabi/14.2.0/../../../../arm-none-eabi/lib/thumb/arm946e-s/libc.a(strcpy.S.o)
 .data          0x00000000        0x0 /opt/wonderful/toolchain/gcc-arm-none-eabi/lib/gcc/arm-none-eabi/14.2.0/../../../../arm-none-eabi/lib/thumb/arm946e-s/libc.a(strlen.S.o)
 .bss           0x00000000        0x0 /opt/wonderful/toolchain/gcc-arm-none-eabi/lib/gcc/arm-none-eabi/14.2.0/../../../../arm-none-eabi/lib/thumb/arm946e-s/libc.a(strlen.S.o)
 .text          0x00000000        0x0 /opt/wonderful/toolchain/gcc-arm-none-eabi/lib/gcc/arm-none-eabi/14.2.0/../../../../arm-none-eabi/lib/thumb/arm946e-s/libc.a(malloc-calloc.c.o)
 .data          0x00000000        0x0 /opt/wonderful/toolchain/gcc-arm-none-eabi/lib/gcc/arm-none-eabi/14.2.0/../../../../arm-none-eabi/lib/thumb/arm946e-s/libc.a(malloc-calloc.c.o)
 .bss           0x00000000        0x0 /opt/wonderful/toolchain/gcc-arm-none-eabi/lib/gcc/arm-none-eabi/14.2.0/../../../../arm-none-eabi/lib/thumb/arm946e-s/libc.a(malloc-calloc.c.o)
 .text          0x00000000        0x0 /opt/wonderful/toolchain/gcc-arm-none-eabi/lib/gcc/arm-none-eabi/14.2.0/../../../../arm-none-eabi/lib/thumb/arm946e-s/libc.a(malloc-free.c.o)
 .data          0x00000000        0x0 /opt/wonderful/toolchain/gcc-arm-none-eabi/lib/gcc/arm-none-eabi/14.2.0/../../../../arm-none-eabi/lib/thumb/arm946e-s/libc.a(malloc-free.c.o)
 .bss           0x00000000        0x0 /opt/wonderful/toolchain/gcc-arm-none-eabi/lib/gcc/arm-none-eabi/14.2.0/../../../../arm-none-eabi/lib/thumb/arm946e-s/libc.a(malloc-free.c.o)
 .text          0x00000000        0x0 /opt/wonderful/toolchain/gcc-arm-none-eabi/lib/gcc/arm-none-eabi/14.2.0/../../../../arm-none-eabi/lib/thumb/arm946e-s/libc.a(malloc-malloc.c.o)
 .text          0x00000000        0x0 /opt/wonderful/toolchain/gcc-arm-none-eabi/lib/gcc/arm-none-eabi/14.2.0/../../../../arm-none-eabi/lib/thumb/arm946e-s/libc.a(malloc-memalign.c.o)
 .data          0x00000000        0x0 /opt/wonderful/toolchain/gcc-arm-none-eabi/lib/gcc/arm-none-eabi/14.2.0/../../../../arm-none-eabi/lib/thumb/arm946e-s/libc.a(malloc-memalign.c.o)
 .bss           0x00000000        0x0 /opt/wonderful/toolchain/gcc-arm-none-eabi/lib/gcc/arm-none-eabi/14.2.0/../../../../arm-none-eabi/lib/thumb/arm946e-s/libc.a(malloc-memalign.c.o)
 .text.memalign
                0x00000000       0xe0 /opt/wonderful/toolchain/gcc-arm-none-eabi/lib/gcc/arm-none-eabi/14.2.0/../../../../arm-none-eabi/lib/thumb/arm946e-s/libc.a(malloc-memalign.c.o)
 .debug_info    0x00000000      0x2f7 /opt/wonderful/toolchain/gcc-arm-none-eabi/lib/gcc/arm-none-eabi/14.2.0/../../../../arm-none-eabi/lib/thumb/arm946e-s/libc.a(malloc-memalign.c.o)
 .debug_abbrev  0x00000000      0x187 /opt/wonderful/toolchain/gcc-arm-none-eabi/lib/gcc/arm-none-eabi/14.2.0/../../../../arm-none-eabi/lib/thumb/arm946e-s/libc.a(malloc-memalign.c.o)
 .debug_loclists
                0x00000000      0x138 /opt/wonderful/toolchain/gcc-arm-none-eabi/lib/gcc/arm-none-eabi/14.2.0/../../../../arm-none-eabi/lib/thumb/arm946e-s/libc.a(malloc-memalign.c.o)
 .debug_aranges
                0x00000000       0x20 /opt/wonderful/toolchain/gcc-arm-none-eabi/lib/gcc/arm-none-eabi/14.2.0/../../../../arm-none-eabi/lib/thumb/arm946e-s/libc.a(malloc-memalign.c.o)
 .debug_rnglists
                0x00000000       0x14 /opt/wonderful/toolchain/gcc-arm-none-eabi/lib/gcc/arm-none-eabi/14.2.0/../../../../arm-none-eabi/lib/thumb/arm946e-s/libc.a(malloc-memalign.c.o)
 .debug_line    0x00000000      0x284 /opt/wonderful/toolchain/gcc-arm-none-eabi/lib/gcc/arm-none-eabi/14.2.0/../../../../arm-none-eabi/lib/thumb/arm946e-s/libc.a(malloc-memalign.c.o)
 .debug_str     0x00000000      0x337 /opt/wonderful/toolchain/gcc-arm-none-eabi/lib/gcc/arm-none-eabi/14.2.0/../../../../arm-none-eabi/lib/thumb/arm946e-s/libc.a(malloc-memalign.c.o)
 .comment       0x00000000       0x23 /opt/wonderful/toolchain/gcc-arm-none-eabi/lib/gcc/arm-none-eabi/14.2.0/../../../../arm-none-eabi/lib/thumb/arm946e-s/libc.a(malloc-memalign.c.o)
 .debug_frame   0x00000000       0x34 /opt/wonderful/toolchain/gcc-arm-none-eabi/lib/gcc/arm-none-eabi/14.2.0/../../../../arm-none-eabi/lib/thumb/arm946e-s/libc.a(malloc-memalign.c.o)
 .text          0x00000000        0x0 /opt/wonderful/toolchain/gcc-arm-none-eabi/lib/gcc/arm-none-eabi/14.2.0/../../../../arm-none-eabi/lib/thumb/arm946e-s/libc.a(malloc-realloc.c.o)
 .data          0x00000000        0x0 /opt/wonderful/toolchain/gcc-arm-none-eabi/lib/gcc/arm-none-eabi/14.2.0/../../../../arm-none-eabi/lib/thumb/arm946e-s/libc.a(malloc-realloc.c.o)
 .bss           0x00000000        0x0 /opt/wonderful/toolchain/gcc-arm-none-eabi/lib/gcc/arm-none-eabi/14.2.0/../../../../arm-none-eabi/lib/thumb/arm946e-s/libc.a(malloc-realloc.c.o)
 .text          0x00000000        0x0 /opt/wonderful/toolchain/gcc-arm-none-eabi/lib/gcc/arm-none-eabi/14.2.0/../../../../arm-none-eabi/lib/thumb/arm946e-s/libc.a(libc_errno_errno.c.o)
 .data          0x00000000        0x0 /opt/wonderful/toolchain/gcc-arm-none-eabi/lib/gcc/arm-none-eabi/14.2.0/../../../../arm-none-eabi/lib/thumb/arm946e-s/libc.a(libc_errno_errno.c.o)
 .bss           0x00000000        0x0 /opt/wonderful/toolchain/gcc-arm-none-eabi/lib/gcc/arm-none-eabi/14.2.0/../../../../arm-none-eabi/lib/thumb/arm946e-s/libc.a(libc_errno_errno.c.o)
 .text          0x00000000        0x0 /opt/wonderful/toolchain/gcc-arm-none-eabi/lib/gcc/arm-none-eabi/14.2.0/../../../../arm-none-eabi/lib/thumb/arm946e-s/libc.a(libc_misc_init.c.o)
 .data          0x00000000        0x0 /opt/wonderful/toolchain/gcc-arm-none-eabi/lib/gcc/arm-none-eabi/14.2.0/../../../../arm-none-eabi/lib/thumb/arm946e-s/libc.a(libc_misc_init.c.o)
 .bss           0x00000000        0x0 /opt/wonderful/toolchain/gcc-arm-none-eabi/lib/gcc/arm-none-eabi/14.2.0/../../../../arm-none-eabi/lib/thumb/arm946e-s/libc.a(libc_misc_init.c.o)
 .text          0x00000000        0x0 /opt/wonderful/toolchain/gcc-arm-none-eabi/lib/gcc/arm-none-eabi/14.2.0/../../../../arm-none-eabi/lib/thumb/arm946e-s/libc.a(libc_search_bsearch.c.o)
 .data          0x00000000        0x0 /opt/wonderful/toolchain/gcc-arm-none-eabi/lib/gcc/arm-none-eabi/14.2.0/../../../../arm-none-eabi/lib/thumb/arm946e-s/libc.a(libc_search_bsearch.c.o)
 .bss           0x00000000        0x0 /opt/wonderful/toolchain/gcc-arm-none-eabi/lib/gcc/arm-none-eabi/14.2.0/../../../../arm-none-eabi/lib/thumb/arm946e-s/libc.a(libc_search_bsearch.c.o)
 .text.bsearch  0x00000000       0x40 /opt/wonderful/toolchain/gcc-arm-none-eabi/lib/gcc/arm-none-eabi/14.2.0/../../../../arm-none-eabi/lib/thumb/arm946e-s/libc.a(libc_search_bsearch.c.o)
 .debug_info    0x00000000      0x187 /opt/wonderful/toolchain/gcc-arm-none-eabi/lib/gcc/arm-none-eabi/14.2.0/../../../../arm-none-eabi/lib/thumb/arm946e-s/libc.a(libc_search_bsearch.c.o)
 .debug_abbrev  0x00000000       0xe0 /opt/wonderful/toolchain/gcc-arm-none-eabi/lib/gcc/arm-none-eabi/14.2.0/../../../../arm-none-eabi/lib/thumb/arm946e-s/libc.a(libc_search_bsearch.c.o)
 .debug_loclists
                0x00000000       0xdb /opt/wonderful/toolchain/gcc-arm-none-eabi/lib/gcc/arm-none-eabi/14.2.0/../../../../arm-none-eabi/lib/thumb/arm946e-s/libc.a(libc_search_bsearch.c.o)
 .debug_aranges
                0x00000000       0x20 /opt/wonderful/toolchain/gcc-arm-none-eabi/lib/gcc/arm-none-eabi/14.2.0/../../../../arm-none-eabi/lib/thumb/arm946e-s/libc.a(libc_search_bsearch.c.o)
 .debug_rnglists
                0x00000000       0x13 /opt/wonderful/toolchain/gcc-arm-none-eabi/lib/gcc/arm-none-eabi/14.2.0/../../../../arm-none-eabi/lib/thumb/arm946e-s/libc.a(libc_search_bsearch.c.o)
 .debug_line    0x00000000      0x12d /opt/wonderful/toolchain/gcc-arm-none-eabi/lib/gcc/arm-none-eabi/14.2.0/../../../../arm-none-eabi/lib/thumb/arm946e-s/libc.a(libc_search_bsearch.c.o)
 .debug_str     0x00000000      0x217 /opt/wonderful/toolchain/gcc-arm-none-eabi/lib/gcc/arm-none-eabi/14.2.0/../../../../arm-none-eabi/lib/thumb/arm946e-s/libc.a(libc_search_bsearch.c.o)
 .comment       0x00000000       0x23 /opt/wonderful/toolchain/gcc-arm-none-eabi/lib/gcc/arm-none-eabi/14.2.0/../../../../arm-none-eabi/lib/thumb/arm946e-s/libc.a(libc_search_bsearch.c.o)
 .debug_frame   0x00000000       0x30 /opt/wonderful/toolchain/gcc-arm-none-eabi/lib/gcc/arm-none-eabi/14.2.0/../../../../arm-none-eabi/lib/thumb/arm946e-s/libc.a(libc_search_bsearch.c.o)
 .text          0x00000000        0x0 /opt/wonderful/toolchain/gcc-arm-none-eabi/lib/gcc/arm-none-eabi/14.2.0/../../../../arm-none-eabi/lib/thumb/arm946e-s/libc.a(libc_stdlib_pico-exit.c.o)
 .data          0x00000000        0x0 /opt/wonderful/toolchain/gcc-arm-none-eabi/lib/gcc/arm-none-eabi/14.2.0/../../../../arm-none-eabi/lib/thumb/arm946e-s/libc.a(libc_stdlib_pico-exit.c.o)
 .bss           0x00000000        0x0 /opt/wonderful/toolchain/gcc-arm-none-eabi/lib/gcc/arm-none-eabi/14.2.0/../../../../arm-none-eabi/lib/thumb/arm946e-s/libc.a(libc_stdlib_pico-exit.c.o)
 .text          0x00000000        0x0 /opt/wonderful/toolchain/gcc-arm-none-eabi/lib/gcc/arm-none-eabi/14.2.0/../../../../arm-none-eabi/lib/thumb/arm946e-s/libc.a(libc_string_memcmp.c.o)
 .data          0x00000000        0x0 /opt/wonderful/toolchain/gcc-arm-none-eabi/lib/gcc/arm-none-eabi/14.2.0/../../../../arm-none-eabi/lib/thumb/arm946e-s/libc.a(libc_string_memcmp.c.o)
 .bss           0x00000000        0x0 /opt/wonderful/toolchain/gcc-arm-none-eabi/lib/gcc/arm-none-eabi/14.2.0/../../../../arm-none-eabi/lib/thumb/arm946e-s/libc.a(libc_string_memcmp.c.o)
 .text          0x00000000        0x0 /opt/wonderful/toolchain/gcc-arm-none-eabi/lib/gcc/arm-none-eabi/14.2.0/../../../../arm-none-eabi/lib/thumb/arm946e-s/libc.a(libc_string_strchr.c.o)
 .data          0x00000000        0x0 /opt/wonderful/toolchain/gcc-arm-none-eabi/lib/gcc/arm-none-eabi/14.2.0/../../../../arm-none-eabi/lib/thumb/arm946e-s/libc.a(libc_string_strchr.c.o)
 .bss           0x00000000        0x0 /opt/wonderful/toolchain/gcc-arm-none-eabi/lib/gcc/arm-none-eabi/14.2.0/../../../../arm-none-eabi/lib/thumb/arm946e-s/libc.a(libc_string_strchr.c.o)
 .text          0x00000000        0x0 /opt/wonderful/toolchain/gcc-arm-none-eabi/lib/gcc/arm-none-eabi/14.2.0/../../../../arm-none-eabi/lib/thumb/arm946e-s/libc.a(libc_string_strdup.c.o)
 .data          0x00000000        0x0 /opt/wonderful/toolchain/gcc-arm-none-eabi/lib/gcc/arm-none-eabi/14.2.0/../../../../arm-none-eabi/lib/thumb/arm946e-s/libc.a(libc_string_strdup.c.o)
 .bss           0x00000000        0x0 /opt/wonderful/toolchain/gcc-arm-none-eabi/lib/gcc/arm-none-eabi/14.2.0/../../../../arm-none-eabi/lib/thumb/arm946e-s/libc.a(libc_string_strdup.c.o)
 .text          0x00000000        0x0 /opt/wonderful/toolchain/gcc-arm-none-eabi/lib/gcc/arm-none-eabi/14.2.0/../../../../arm-none-eabi/lib/thumb/arm946e-s/libc.a(libc_string_strncmp.c.o)
 .data          0x00000000        0x0 /opt/wonderful/toolchain/gcc-arm-none-eabi/lib/gcc/arm-none-eabi/14.2.0/../../../../arm-none-eabi/lib/thumb/arm946e-s/libc.a(libc_string_strncmp.c.o)
 .bss           0x00000000        0x0 /opt/wonderful/toolchain/gcc-arm-none-eabi/lib/gcc/arm-none-eabi/14.2.0/../../../../arm-none-eabi/lib/thumb/arm946e-s/libc.a(libc_string_strncmp.c.o)
 .text          0x00000000        0x0 /opt/wonderful/toolchain/gcc-arm-none-eabi/lib/gcc/arm-none-eabi/14.2.0/../../../../arm-none-eabi/lib/thumb/arm946e-s/libc.a(libc_string_strncpy.c.o)
 .data          0x00000000        0x0 /opt/wonderful/toolchain/gcc-arm-none-eabi/lib/gcc/arm-none-eabi/14.2.0/../../../../arm-none-eabi/lib/thumb/arm946e-s/libc.a(libc_string_strncpy.c.o)
 .bss           0x00000000        0x0 /opt/wonderful/toolchain/gcc-arm-none-eabi/lib/gcc/arm-none-eabi/14.2.0/../../../../arm-none-eabi/lib/thumb/arm946e-s/libc.a(libc_string_strncpy.c.o)
 .text.strncpy  0x00000000       0x28 /opt/wonderful/toolchain/gcc-arm-none-eabi/lib/gcc/arm-none-eabi/14.2.0/../../../../arm-none-eabi/lib/thumb/arm946e-s/libc.a(libc_string_strncpy.c.o)
 .debug_info    0x00000000      0x10e /opt/wonderful/toolchain/gcc-arm-none-eabi/lib/gcc/arm-none-eabi/14.2.0/../../../../arm-none-eabi/lib/thumb/arm946e-s/libc.a(libc_string_strncpy.c.o)
 .debug_abbrev  0x00000000       0xa9 /opt/wonderful/toolchain/gcc-arm-none-eabi/lib/gcc/arm-none-eabi/14.2.0/../../../../arm-none-eabi/lib/thumb/arm946e-s/libc.a(libc_string_strncpy.c.o)
 .debug_loclists
                0x00000000       0xef /opt/wonderful/toolchain/gcc-arm-none-eabi/lib/gcc/arm-none-eabi/14.2.0/../../../../arm-none-eabi/lib/thumb/arm946e-s/libc.a(libc_string_strncpy.c.o)
 .debug_aranges
                0x00000000       0x20 /opt/wonderful/toolchain/gcc-arm-none-eabi/lib/gcc/arm-none-eabi/14.2.0/../../../../arm-none-eabi/lib/thumb/arm946e-s/libc.a(libc_string_strncpy.c.o)
 .debug_rnglists
                0x00000000       0x13 /opt/wonderful/toolchain/gcc-arm-none-eabi/lib/gcc/arm-none-eabi/14.2.0/../../../../arm-none-eabi/lib/thumb/arm946e-s/libc.a(libc_string_strncpy.c.o)
 .debug_line    0x00000000       0xff /opt/wonderful/toolchain/gcc-arm-none-eabi/lib/gcc/arm-none-eabi/14.2.0/../../../../arm-none-eabi/lib/thumb/arm946e-s/libc.a(libc_string_strncpy.c.o)
 .debug_str     0x00000000      0x200 /opt/wonderful/toolchain/gcc-arm-none-eabi/lib/gcc/arm-none-eabi/14.2.0/../../../../arm-none-eabi/lib/thumb/arm946e-s/libc.a(libc_string_strncpy.c.o)
 .comment       0x00000000       0x23 /opt/wonderful/toolchain/gcc-arm-none-eabi/lib/gcc/arm-none-eabi/14.2.0/../../../../arm-none-eabi/lib/thumb/arm946e-s/libc.a(libc_string_strncpy.c.o)
 .debug_frame   0x00000000       0x2c /opt/wonderful/toolchain/gcc-arm-none-eabi/lib/gcc/arm-none-eabi/14.2.0/../../../../arm-none-eabi/lib/thumb/arm946e-s/libc.a(libc_string_strncpy.c.o)
 .text          0x00000000        0x0 /opt/wonderful/toolchain/gcc-arm-none-eabi/lib/gcc/arm-none-eabi/14.2.0/../../../../arm-none-eabi/lib/thumb/arm946e-s/libc.a(libc_string_strstr.c.o)
 .data          0x00000000        0x0 /opt/wonderful/toolchain/gcc-arm-none-eabi/lib/gcc/arm-none-eabi/14.2.0/../../../../arm-none-eabi/lib/thumb/arm946e-s/libc.a(libc_string_strstr.c.o)
 .bss           0x00000000        0x0 /opt/wonderful/toolchain/gcc-arm-none-eabi/lib/gcc/arm-none-eabi/14.2.0/../../../../arm-none-eabi/lib/thumb/arm946e-s/libc.a(libc_string_strstr.c.o)
 .text          0x00000000        0x0 /opt/wonderful/toolchain/gcc-arm-none-eabi/lib/gcc/arm-none-eabi/14.2.0/../../../../arm-none-eabi/lib/thumb/arm946e-s/libc.a(libc_time_lcltime.c.o)
 .data          0x00000000        0x0 /opt/wonderful/toolchain/gcc-arm-none-eabi/lib/gcc/arm-none-eabi/14.2.0/../../../../arm-none-eabi/lib/thumb/arm946e-s/libc.a(libc_time_lcltime.c.o)
 .bss           0x00000000        0x0 /opt/wonderful/toolchain/gcc-arm-none-eabi/lib/gcc/arm-none-eabi/14.2.0/../../../../arm-none-eabi/lib/thumb/arm946e-s/libc.a(libc_time_lcltime.c.o)
 .text          0x00000000        0x0 /opt/wonderful/toolchain/gcc-arm-none-eabi/lib/gcc/arm-none-eabi/14.2.0/../../../../arm-none-eabi/lib/thumb/arm946e-s/libc.a(libc_time_lcltime_r.c.o)
 .data          0x00000000        0x0 /opt/wonderful/toolchain/gcc-arm-none-eabi/lib/gcc/arm-none-eabi/14.2.0/../../../../arm-none-eabi/lib/thumb/arm946e-s/libc.a(libc_time_lcltime_r.c.o)
 .bss           0x00000000        0x0 /opt/wonderful/toolchain/gcc-arm-none-eabi/lib/gcc/arm-none-eabi/14.2.0/../../../../arm-none-eabi/lib/thumb/arm946e-s/libc.a(libc_time_lcltime_r.c.o)
 .text          0x00000000        0x0 /opt/wonderful/toolchain/gcc-arm-none-eabi/lib/gcc/arm-none-eabi/14.2.0/../../../../arm-none-eabi/lib/thumb/arm946e-s/libc.a(libc_time_lcltime_buf.c.o)
 .data          0x00000000        0x0 /opt/wonderful/toolchain/gcc-arm-none-eabi/lib/gcc/arm-none-eabi/14.2.0/../../../../arm-none-eabi/lib/thumb/arm946e-s/libc.a(libc_time_lcltime_buf.c.o)
 .bss           0x00000000        0x0 /opt/wonderful/toolchain/gcc-arm-none-eabi/lib/gcc/arm-none-eabi/14.2.0/../../../../arm-none-eabi/lib/thumb/arm946e-s/libc.a(libc_time_lcltime_buf.c.o)
 .text          0x00000000        0x0 /opt/wonderful/toolchain/gcc-arm-none-eabi/lib/gcc/arm-none-eabi/14.2.0/../../../../arm-none-eabi/lib/thumb/arm946e-s/libc.a(libc_time_mktime.c.o)
 .data          0x00000000        0x0 /opt/wonderful/toolchain/gcc-arm-none-eabi/lib/gcc/arm-none-eabi/14.2.0/../../../../arm-none-eabi/lib/thumb/arm946e-s/libc.a(libc_time_mktime.c.o)
 .bss           0x00000000        0x0 /opt/wonderful/toolchain/gcc-arm-none-eabi/lib/gcc/arm-none-eabi/14.2.0/../../../../arm-none-eabi/lib/thumb/arm946e-s/libc.a(libc_time_mktime.c.o)
 .text.isleap   0x00000000       0x28 /opt/wonderful/toolchain/gcc-arm-none-eabi/lib/gcc/arm-none-eabi/14.2.0/../../../../arm-none-eabi/lib/thumb/arm946e-s/libc.a(libc_time_mktime.c.o)
 .text.validate_structure
                0x00000000      0x130 /opt/wonderful/toolchain/gcc-arm-none-eabi/lib/gcc/arm-none-eabi/14.2.0/../../../../arm-none-eabi/lib/thumb/arm946e-s/libc.a(libc_time_mktime.c.o)
 .text.mktime_utc
                0x00000000       0xbc /opt/wonderful/toolchain/gcc-arm-none-eabi/lib/gcc/arm-none-eabi/14.2.0/../../../../arm-none-eabi/lib/thumb/arm946e-s/libc.a(libc_time_mktime.c.o)
 .text.mktime   0x00000000      0x208 /opt/wonderful/toolchain/gcc-arm-none-eabi/lib/gcc/arm-none-eabi/14.2.0/../../../../arm-none-eabi/lib/thumb/arm946e-s/libc.a(libc_time_mktime.c.o)
 .text.timegm   0x00000000       0x34 /opt/wonderful/toolchain/gcc-arm-none-eabi/lib/gcc/arm-none-eabi/14.2.0/../../../../arm-none-eabi/lib/thumb/arm946e-s/libc.a(libc_time_mktime.c.o)
 .rodata        0x00000000       0x18 /opt/wonderful/toolchain/gcc-arm-none-eabi/lib/gcc/arm-none-eabi/14.2.0/../../../../arm-none-eabi/lib/thumb/arm946e-s/libc.a(libc_time_mktime.c.o)
 .debug_info    0x00000000      0x804 /opt/wonderful/toolchain/gcc-arm-none-eabi/lib/gcc/arm-none-eabi/14.2.0/../../../../arm-none-eabi/lib/thumb/arm946e-s/libc.a(libc_time_mktime.c.o)
 .debug_abbrev  0x00000000      0x332 /opt/wonderful/toolchain/gcc-arm-none-eabi/lib/gcc/arm-none-eabi/14.2.0/../../../../arm-none-eabi/lib/thumb/arm946e-s/libc.a(libc_time_mktime.c.o)
 .debug_loclists
                0x00000000      0x691 /opt/wonderful/toolchain/gcc-arm-none-eabi/lib/gcc/arm-none-eabi/14.2.0/../../../../arm-none-eabi/lib/thumb/arm946e-s/libc.a(libc_time_mktime.c.o)
 .debug_aranges
                0x00000000       0x40 /opt/wonderful/toolchain/gcc-arm-none-eabi/lib/gcc/arm-none-eabi/14.2.0/../../../../arm-none-eabi/lib/thumb/arm946e-s/libc.a(libc_time_mktime.c.o)
 .debug_rnglists
                0x00000000       0x90 /opt/wonderful/toolchain/gcc-arm-none-eabi/lib/gcc/arm-none-eabi/14.2.0/../../../../arm-none-eabi/lib/thumb/arm946e-s/libc.a(libc_time_mktime.c.o)
 .debug_line    0x00000000      0x74c /opt/wonderful/toolchain/gcc-arm-none-eabi/lib/gcc/arm-none-eabi/14.2.0/../../../../arm-none-eabi/lib/thumb/arm946e-s/libc.a(libc_time_mktime.c.o)
 .debug_str     0x00000000      0x44d /opt/wonderful/toolchain/gcc-arm-none-eabi/lib/gcc/arm-none-eabi/14.2.0/../../../../arm-none-eabi/lib/thumb/arm946e-s/libc.a(libc_time_mktime.c.o)
 .comment       0x00000000       0x23 /opt/wonderful/toolchain/gcc-arm-none-eabi/lib/gcc/arm-none-eabi/14.2.0/../../../../arm-none-eabi/lib/thumb/arm946e-s/libc.a(libc_time_mktime.c.o)
 .debug_frame   0x00000000       0xb4 /opt/wonderful/toolchain/gcc-arm-none-eabi/lib/gcc/arm-none-eabi/14.2.0/../../../../arm-none-eabi/lib/thumb/arm946e-s/libc.a(libc_time_mktime.c.o)
 .text          0x00000000        0x0 /opt/wonderful/toolchain/gcc-arm-none-eabi/lib/gcc/arm-none-eabi/14.2.0/../../../../arm-none-eabi/lib/thumb/arm946e-s/libc.a(libc_time_month_lengths.c.o)
 .data          0x00000000        0x0 /opt/wonderful/toolchain/gcc-arm-none-eabi/lib/gcc/arm-none-eabi/14.2.0/../../../../arm-none-eabi/lib/thumb/arm946e-s/libc.a(libc_time_month_lengths.c.o)
 .bss           0x00000000        0x0 /opt/wonderful/toolchain/gcc-arm-none-eabi/lib/gcc/arm-none-eabi/14.2.0/../../../../arm-none-eabi/lib/thumb/arm946e-s/libc.a(libc_time_month_lengths.c.o)
 .text          0x00000000        0x0 /opt/wonderful/toolchain/gcc-arm-none-eabi/lib/gcc/arm-none-eabi/14.2.0/../../../../arm-none-eabi/lib/thumb/arm946e-s/libc.a(libc_time_time.c.o)
 .data          0x00000000        0x0 /opt/wonderful/toolchain/gcc-arm-none-eabi/lib/gcc/arm-none-eabi/14.2.0/../../../../arm-none-eabi/lib/thumb/arm946e-s/libc.a(libc_time_time.c.o)
 .bss           0x00000000        0x0 /opt/wonderful/toolchain/gcc-arm-none-eabi/lib/gcc/arm-none-eabi/14.2.0/../../../../arm-none-eabi/lib/thumb/arm946e-s/libc.a(libc_time_time.c.o)
 .text          0x00000000        0x0 /opt/wonderful/toolchain/gcc-arm-none-eabi/lib/gcc/arm-none-eabi/14.2.0/../../../../arm-none-eabi/lib/thumb/arm946e-s/libc.a(libc_time_tzcalc_limits.c.o)
 .data          0x00000000        0x0 /opt/wonderful/toolchain/gcc-arm-none-eabi/lib/gcc/arm-none-eabi/14.2.0/../../../../arm-none-eabi/lib/thumb/arm946e-s/libc.a(libc_time_tzcalc_limits.c.o)
 .bss           0x00000000        0x0 /opt/wonderful/toolchain/gcc-arm-none-eabi/lib/gcc/arm-none-eabi/14.2.0/../../../../arm-none-eabi/lib/thumb/arm946e-s/libc.a(libc_time_tzcalc_limits.c.o)
 .text          0x00000000        0x0 /opt/wonderful/toolchain/gcc-arm-none-eabi/lib/gcc/arm-none-eabi/14.2.0/../../../../arm-none-eabi/lib/thumb/arm946e-s/libc.a(libc_time_tzset.c.o)
 .data          0x00000000        0x0 /opt/wonderful/toolchain/gcc-arm-none-eabi/lib/gcc/arm-none-eabi/14.2.0/../../../../arm-none-eabi/lib/thumb/arm946e-s/libc.a(libc_time_tzset.c.o)
 .text.tzset    0x00000000       0x1c /opt/wonderful/toolchain/gcc-arm-none-eabi/lib/gcc/arm-none-eabi/14.2.0/../../../../arm-none-eabi/lib/thumb/arm946e-s/libc.a(libc_time_tzset.c.o)
 .text          0x00000000        0x0 /opt/wonderful/toolchain/gcc-arm-none-eabi/lib/gcc/arm-none-eabi/14.2.0/../../../../arm-none-eabi/lib/thumb/arm946e-s/libc.a(libc_time_tzvars.c.o)
 .text          0x00000000        0x0 /opt/wonderful/toolchain/gcc-arm-none-eabi/lib/gcc/arm-none-eabi/14.2.0/../../../../arm-none-eabi/lib/thumb/arm946e-s/libc.a(libc_tinystdio_fclose.c.o)
 .data          0x00000000        0x0 /opt/wonderful/toolchain/gcc-arm-none-eabi/lib/gcc/arm-none-eabi/14.2.0/../../../../arm-none-eabi/lib/thumb/arm946e-s/libc.a(libc_tinystdio_fclose.c.o)
 .bss           0x00000000        0x0 /opt/wonderful/toolchain/gcc-arm-none-eabi/lib/gcc/arm-none-eabi/14.2.0/../../../../arm-none-eabi/lib/thumb/arm946e-s/libc.a(libc_tinystdio_fclose.c.o)
 .text          0x00000000        0x0 /opt/wonderful/toolchain/gcc-arm-none-eabi/lib/gcc/arm-none-eabi/14.2.0/../../../../arm-none-eabi/lib/thumb/arm946e-s/libc.a(libc_tinystdio_fflush.c.o)
 .data          0x00000000        0x0 /opt/wonderful/toolchain/gcc-arm-none-eabi/lib/gcc/arm-none-eabi/14.2.0/../../../../arm-none-eabi/lib/thumb/arm946e-s/libc.a(libc_tinystdio_fflush.c.o)
 .bss           0x00000000        0x0 /opt/wonderful/toolchain/gcc-arm-none-eabi/lib/gcc/arm-none-eabi/14.2.0/../../../../arm-none-eabi/lib/thumb/arm946e-s/libc.a(libc_tinystdio_fflush.c.o)
 .text          0x00000000        0x0 /opt/wonderful/toolchain/gcc-arm-none-eabi/lib/gcc/arm-none-eabi/14.2.0/../../../../arm-none-eabi/lib/thumb/arm946e-s/libc.a(libc_tinystdio_fileno.c.o)
 .data          0x00000000        0x0 /opt/wonderful/toolchain/gcc-arm-none-eabi/lib/gcc/arm-none-eabi/14.2.0/../../../../arm-none-eabi/lib/thumb/arm946e-s/libc.a(libc_tinystdio_fileno.c.o)
 .bss           0x00000000        0x0 /opt/wonderful/toolchain/gcc-arm-none-eabi/lib/gcc/arm-none-eabi/14.2.0/../../../../arm-none-eabi/lib/thumb/arm946e-s/libc.a(libc_tinystdio_fileno.c.o)
 .text          0x00000000        0x0 /opt/wonderful/toolchain/gcc-arm-none-eabi/lib/gcc/arm-none-eabi/14.2.0/../../../../arm-none-eabi/lib/thumb/arm946e-s/libc.a(libc_tinystdio_fread.c.o)
 .data          0x00000000        0x0 /opt/wonderful/toolchain/gcc-arm-none-eabi/lib/gcc/arm-none-eabi/14.2.0/../../../../arm-none-eabi/lib/thumb/arm946e-s/libc.a(libc_tinystdio_fread.c.o)
 .bss           0x00000000        0x0 /opt/wonderful/toolchain/gcc-arm-none-eabi/lib/gcc/arm-none-eabi/14.2.0/../../../../arm-none-eabi/lib/thumb/arm946e-s/libc.a(libc_tinystdio_fread.c.o)
 .text          0x00000000        0x0 /opt/wonderful/toolchain/gcc-arm-none-eabi/lib/gcc/arm-none-eabi/14.2.0/../../../../arm-none-eabi/lib/thumb/arm946e-s/libc.a(libc_tinystdio_fseek.c.o)
 .data          0x00000000        0x0 /opt/wonderful/toolchain/gcc-arm-none-eabi/lib/gcc/arm-none-eabi/14.2.0/../../../../arm-none-eabi/lib/thumb/arm946e-s/libc.a(libc_tinystdio_fseek.c.o)
 .bss           0x00000000        0x0 /opt/wonderful/toolchain/gcc-arm-none-eabi/lib/gcc/arm-none-eabi/14.2.0/../../../../arm-none-eabi/lib/thumb/arm946e-s/libc.a(libc_tinystdio_fseek.c.o)
 .text          0x00000000        0x0 /opt/wonderful/toolchain/gcc-arm-none-eabi/lib/gcc/arm-none-eabi/14.2.0/../../../../arm-none-eabi/lib/thumb/arm946e-s/libc.a(libc_tinystdio_ftell.c.o)
 .data          0x00000000        0x0 /opt/wonderful/toolchain/gcc-arm-none-eabi/lib/gcc/arm-none-eabi/14.2.0/../../../../arm-none-eabi/lib/thumb/arm946e-s/libc.a(libc_tinystdio_ftell.c.o)
 .bss           0x00000000        0x0 /opt/wonderful/toolchain/gcc-arm-none-eabi/lib/gcc/arm-none-eabi/14.2.0/../../../../arm-none-eabi/lib/thumb/arm946e-s/libc.a(libc_tinystdio_ftell.c.o)
 .text          0x00000000        0x0 /opt/wonderful/toolchain/gcc-arm-none-eabi/lib/gcc/arm-none-eabi/14.2.0/../../../../arm-none-eabi/lib/thumb/arm946e-s/libc.a(libc_tinystdio_printf.c.o)
 .data          0x00000000        0x0 /opt/wonderful/toolchain/gcc-arm-none-eabi/lib/gcc/arm-none-eabi/14.2.0/../../../../arm-none-eabi/lib/thumb/arm946e-s/libc.a(libc_tinystdio_printf.c.o)
 .bss           0x00000000        0x0 /opt/wonderful/toolchain/gcc-arm-none-eabi/lib/gcc/arm-none-eabi/14.2.0/../../../../arm-none-eabi/lib/thumb/arm946e-s/libc.a(libc_tinystdio_printf.c.o)
 .text          0x00000000        0x0 /opt/wonderful/toolchain/gcc-arm-none-eabi/lib/gcc/arm-none-eabi/14.2.0/../../../../arm-none-eabi/lib/thumb/arm946e-s/libc.a(libc_tinystdio_putchar.c.o)
 .data          0x00000000        0x0 /opt/wonderful/toolchain/gcc-arm-none-eabi/lib/gcc/arm-none-eabi/14.2.0/../../../../arm-none-eabi/lib/thumb/arm946e-s/libc.a(libc_tinystdio_putchar.c.o)
 .bss           0x00000000        0x0 /opt/wonderful/toolchain/gcc-arm-none-eabi/lib/gcc/arm-none-eabi/14.2.0/../../../../arm-none-eabi/lib/thumb/arm946e-s/libc.a(libc_tinystdio_putchar.c.o)
 .text          0x00000000        0x0 /opt/wonderful/toolchain/gcc-arm-none-eabi/lib/gcc/arm-none-eabi/14.2.0/../../../../arm-none-eabi/lib/thumb/arm946e-s/libc.a(libc_tinystdio_puts.c.o)
 .data          0x00000000        0x0 /opt/wonderful/toolchain/gcc-arm-none-eabi/lib/gcc/arm-none-eabi/14.2.0/../../../../arm-none-eabi/lib/thumb/arm946e-s/libc.a(libc_tinystdio_puts.c.o)
 .bss           0x00000000        0x0 /opt/wonderful/toolchain/gcc-arm-none-eabi/lib/gcc/arm-none-eabi/14.2.0/../../../../arm-none-eabi/lib/thumb/arm946e-s/libc.a(libc_tinystdio_puts.c.o)
 .text          0x00000000        0x0 /opt/wonderful/toolchain/gcc-arm-none-eabi/lib/gcc/arm-none-eabi/14.2.0/../../../../arm-none-eabi/lib/thumb/arm946e-s/libc.a(libc_tinystdio_rewind.c.o)
 .data          0x00000000        0x0 /opt/wonderful/toolchain/gcc-arm-none-eabi/lib/gcc/arm-none-eabi/14.2.0/../../../../arm-none-eabi/lib/thumb/arm946e-s/libc.a(libc_tinystdio_rewind.c.o)
 .bss           0x00000000        0x0 /opt/wonderful/toolchain/gcc-arm-none-eabi/lib/gcc/arm-none-eabi/14.2.0/../../../../arm-none-eabi/lib/thumb/arm946e-s/libc.a(libc_tinystdio_rewind.c.o)
 .text          0x00000000        0x0 /opt/wonderful/toolchain/gcc-arm-none-eabi/lib/gcc/arm-none-eabi/14.2.0/../../../../arm-none-eabi/lib/thumb/arm946e-s/libc.a(libc_tinystdio_setvbuf.c.o)
 .data          0x00000000        0x0 /opt/wonderful/toolchain/gcc-arm-none-eabi/lib/gcc/arm-none-eabi/14.2.0/../../../../arm-none-eabi/lib/thumb/arm946e-s/libc.a(libc_tinystdio_setvbuf.c.o)
 .bss           0x00000000        0x0 /opt/wonderful/toolchain/gcc-arm-none-eabi/lib/gcc/arm-none-eabi/14.2.0/../../../../arm-none-eabi/lib/thumb/arm946e-s/libc.a(libc_tinystdio_setvbuf.c.o)
 .text          0x00000000        0x0 /opt/wonderful/toolchain/gcc-arm-none-eabi/lib/gcc/arm-none-eabi/14.2.0/../../../../arm-none-eabi/lib/thumb/arm946e-s/libc.a(libc_tinystdio_snprintf.c.o)
 .data          0x00000000        0x0 /opt/wonderful/toolchain/gcc-arm-none-eabi/lib/gcc/arm-none-eabi/14.2.0/../../../../arm-none-eabi/lib/thumb/arm946e-s/libc.a(libc_tinystdio_snprintf.c.o)
 .bss           0x00000000        0x0 /opt/wonderful/toolchain/gcc-arm-none-eabi/lib/gcc/arm-none-eabi/14.2.0/../../../../arm-none-eabi/lib/thumb/arm946e-s/libc.a(libc_tinystdio_snprintf.c.o)
 .text          0x00000000        0x0 /opt/wonderful/toolchain/gcc-arm-none-eabi/lib/gcc/arm-none-eabi/14.2.0/../../../../arm-none-eabi/lib/thumb/arm946e-s/libc.a(libc_tinystdio_sscanf.c.o)
 .data          0x00000000        0x0 /opt/wonderful/toolchain/gcc-arm-none-eabi/lib/gcc/arm-none-eabi/14.2.0/../../../../arm-none-eabi/lib/thumb/arm946e-s/libc.a(libc_tinystdio_sscanf.c.o)
 .bss           0x00000000        0x0 /opt/wonderful/toolchain/gcc-arm-none-eabi/lib/gcc/arm-none-eabi/14.2.0/../../../../arm-none-eabi/lib/thumb/arm946e-s/libc.a(libc_tinystdio_sscanf.c.o)
 .text          0x00000000        0x0 /opt/wonderful/toolchain/gcc-arm-none-eabi/lib/gcc/arm-none-eabi/14.2.0/../../../../arm-none-eabi/lib/thumb/arm946e-s/libc.a(libc_tinystdio_strtoul.c.o)
 .data          0x00000000        0x0 /opt/wonderful/toolchain/gcc-arm-none-eabi/lib/gcc/arm-none-eabi/14.2.0/../../../../arm-none-eabi/lib/thumb/arm946e-s/libc.a(libc_tinystdio_strtoul.c.o)
 .bss           0x00000000        0x0 /opt/wonderful/toolchain/gcc-arm-none-eabi/lib/gcc/arm-none-eabi/14.2.0/../../../../arm-none-eabi/lib/thumb/arm946e-s/libc.a(libc_tinystdio_strtoul.c.o)
 .text          0x00000000        0x0 /opt/wonderful/toolchain/gcc-arm-none-eabi/lib/gcc/arm-none-eabi/14.2.0/../../../../arm-none-eabi/lib/thumb/arm946e-s/libc.a(libc_tinystdio_vfprintf.c.o)
 .data          0x00000000        0x0 /opt/wonderful/toolchain/gcc-arm-none-eabi/lib/gcc/arm-none-eabi/14.2.0/../../../../arm-none-eabi/lib/thumb/arm946e-s/libc.a(libc_tinystdio_vfprintf.c.o)
 .bss           0x00000000        0x0 /opt/wonderful/toolchain/gcc-arm-none-eabi/lib/gcc/arm-none-eabi/14.2.0/../../../../arm-none-eabi/lib/thumb/arm946e-s/libc.a(libc_tinystdio_vfprintf.c.o)
 .text          0x00000000        0x0 /opt/wonderful/toolchain/gcc-arm-none-eabi/lib/gcc/arm-none-eabi/14.2.0/../../../../arm-none-eabi/lib/thumb/arm946e-s/libc.a(libc_tinystdio_vfscanf.c.o)
 .data          0x00000000        0x0 /opt/wonderful/toolchain/gcc-arm-none-eabi/lib/gcc/arm-none-eabi/14.2.0/../../../../arm-none-eabi/lib/thumb/arm946e-s/libc.a(libc_tinystdio_vfscanf.c.o)
 .bss           0x00000000        0x0 /opt/wonderful/toolchain/gcc-arm-none-eabi/lib/gcc/arm-none-eabi/14.2.0/../../../../arm-none-eabi/lib/thumb/arm946e-s/libc.a(libc_tinystdio_vfscanf.c.o)
 .text          0x00000000        0x0 /opt/wonderful/toolchain/gcc-arm-none-eabi/lib/gcc/arm-none-eabi/14.2.0/../../../../arm-none-eabi/lib/thumb/arm946e-s/libc.a(libc_tinystdio_atod_ryu.c.o)
 .data          0x00000000        0x0 /opt/wonderful/toolchain/gcc-arm-none-eabi/lib/gcc/arm-none-eabi/14.2.0/../../../../arm-none-eabi/lib/thumb/arm946e-s/libc.a(libc_tinystdio_atod_ryu.c.o)
 .bss           0x00000000        0x0 /opt/wonderful/toolchain/gcc-arm-none-eabi/lib/gcc/arm-none-eabi/14.2.0/../../../../arm-none-eabi/lib/thumb/arm946e-s/libc.a(libc_tinystdio_atod_ryu.c.o)
 .text          0x00000000        0x0 /opt/wonderful/toolchain/gcc-arm-none-eabi/lib/gcc/arm-none-eabi/14.2.0/../../../../arm-none-eabi/lib/thumb/arm946e-s/libc.a(libc_tinystdio_atof_ryu.c.o)
 .data          0x00000000        0x0 /opt/wonderful/toolchain/gcc-arm-none-eabi/lib/gcc/arm-none-eabi/14.2.0/../../../../arm-none-eabi/lib/thumb/arm946e-s/libc.a(libc_tinystdio_atof_ryu.c.o)
 .bss           0x00000000        0x0 /opt/wonderful/toolchain/gcc-arm-none-eabi/lib/gcc/arm-none-eabi/14.2.0/../../../../arm-none-eabi/lib/thumb/arm946e-s/libc.a(libc_tinystdio_atof_ryu.c.o)
 .text          0x00000000        0x0 /opt/wonderful/toolchain/gcc-arm-none-eabi/lib/gcc/arm-none-eabi/14.2.0/../../../../arm-none-eabi/lib/thumb/arm946e-s/libc.a(libc_tinystdio_dtoa_ryu.c.o)
 .data          0x00000000        0x0 /opt/wonderful/toolchain/gcc-arm-none-eabi/lib/gcc/arm-none-eabi/14.2.0/../../../../arm-none-eabi/lib/thumb/arm946e-s/libc.a(libc_tinystdio_dtoa_ryu.c.o)
 .bss           0x00000000        0x0 /opt/wonderful/toolchain/gcc-arm-none-eabi/lib/gcc/arm-none-eabi/14.2.0/../../../../arm-none-eabi/lib/thumb/arm946e-s/libc.a(libc_tinystdio_dtoa_ryu.c.o)
 .text          0x00000000        0x0 /opt/wonderful/toolchain/gcc-arm-none-eabi/lib/gcc/arm-none-eabi/14.2.0/../../../../arm-none-eabi/lib/thumb/arm946e-s/libc.a(libc_tinystdio_ryu_divpow2.c.o)
 .data          0x00000000        0x0 /opt/wonderful/toolchain/gcc-arm-none-eabi/lib/gcc/arm-none-eabi/14.2.0/../../../../arm-none-eabi/lib/thumb/arm946e-s/libc.a(libc_tinystdio_ryu_divpow2.c.o)
 .bss           0x00000000        0x0 /opt/wonderful/toolchain/gcc-arm-none-eabi/lib/gcc/arm-none-eabi/14.2.0/../../../../arm-none-eabi/lib/thumb/arm946e-s/libc.a(libc_tinystdio_ryu_divpow2.c.o)
 .text          0x00000000        0x0 /opt/wonderful/toolchain/gcc-arm-none-eabi/lib/gcc/arm-none-eabi/14.2.0/../../../../arm-none-eabi/lib/thumb/arm946e-s/libc.a(libc_tinystdio_ryu_log10.c.o)
 .data          0x00000000        0x0 /opt/wonderful/toolchain/gcc-arm-none-eabi/lib/gcc/arm-none-eabi/14.2.0/../../../../arm-none-eabi/lib/thumb/arm946e-s/libc.a(libc_tinystdio_ryu_log10.c.o)
 .bss           0x00000000        0x0 /opt/wonderful/toolchain/gcc-arm-none-eabi/lib/gcc/arm-none-eabi/14.2.0/../../../../arm-none-eabi/lib/thumb/arm946e-s/libc.a(libc_tinystdio_ryu_log10.c.o)
 .text          0x00000000        0x0 /opt/wonderful/toolchain/gcc-arm-none-eabi/lib/gcc/arm-none-eabi/14.2.0/../../../../arm-none-eabi/lib/thumb/arm946e-s/libc.a(libc_tinystdio_ryu_log2pow5.c.o)
 .data          0x00000000        0x0 /opt/wonderful/toolchain/gcc-arm-none-eabi/lib/gcc/arm-none-eabi/14.2.0/../../../../arm-none-eabi/lib/thumb/arm946e-s/libc.a(libc_tinystdio_ryu_log2pow5.c.o)
 .bss           0x00000000        0x0 /opt/wonderful/toolchain/gcc-arm-none-eabi/lib/gcc/arm-none-eabi/14.2.0/../../../../arm-none-eabi/lib/thumb/arm946e-s/libc.a(libc_tinystdio_ryu_log2pow5.c.o)
 .text          0x00000000        0x0 /opt/wonderful/toolchain/gcc-arm-none-eabi/lib/gcc/arm-none-eabi/14.2.0/../../../../arm-none-eabi/lib/thumb/arm946e-s/libc.a(libc_tinystdio_ryu_pow5bits.c.o)
 .data          0x00000000        0x0 /opt/wonderful/toolchain/gcc-arm-none-eabi/lib/gcc/arm-none-eabi/14.2.0/../../../../arm-none-eabi/lib/thumb/arm946e-s/libc.a(libc_tinystdio_ryu_pow5bits.c.o)
 .bss           0x00000000        0x0 /opt/wonderful/toolchain/gcc-arm-none-eabi/lib/gcc/arm-none-eabi/14.2.0/../../../../arm-none-eabi/lib/thumb/arm946e-s/libc.a(libc_tinystdio_ryu_pow5bits.c.o)
 .text          0x00000000        0x0 /opt/wonderful/toolchain/gcc-arm-none-eabi/lib/gcc/arm-none-eabi/14.2.0/../../../../arm-none-eabi/lib/thumb/arm946e-s/libc.a(libc_tinystdio_ryu_table.c.o)
 .data          0x00000000        0x0 /opt/wonderful/toolchain/gcc-arm-none-eabi/lib/gcc/arm-none-eabi/14.2.0/../../../../arm-none-eabi/lib/thumb/arm946e-s/libc.a(libc_tinystdio_ryu_table.c.o)
 .bss           0x00000000        0x0 /opt/wonderful/toolchain/gcc-arm-none-eabi/lib/gcc/arm-none-eabi/14.2.0/../../../../arm-none-eabi/lib/thumb/arm946e-s/libc.a(libc_tinystdio_ryu_table.c.o)
 .text          0x00000000        0x0 /opt/wonderful/toolchain/gcc-arm-none-eabi/lib/gcc/arm-none-eabi/14.2.0/../../../../arm-none-eabi/lib/thumb/arm946e-s/libc.a(libc_tinystdio_ryu_umul128.c.o)
 .data          0x00000000        0x0 /opt/wonderful/toolchain/gcc-arm-none-eabi/lib/gcc/arm-none-eabi/14.2.0/../../../../arm-none-eabi/lib/thumb/arm946e-s/libc.a(libc_tinystdio_ryu_umul128.c.o)
 .bss           0x00000000        0x0 /opt/wonderful/toolchain/gcc-arm-none-eabi/lib/gcc/arm-none-eabi/14.2.0/../../../../arm-none-eabi/lib/thumb/arm946e-s/libc.a(libc_tinystdio_ryu_umul128.c.o)
 .text          0x00000000        0x0 /opt/wonderful/toolchain/gcc-arm-none-eabi/lib/gcc/arm-none-eabi/14.2.0/../../../../arm-none-eabi/lib/thumb/arm946e-s/libc.a(libc_tinystdio_exchange.c.o)
 .data          0x00000000        0x0 /opt/wonderful/toolchain/gcc-arm-none-eabi/lib/gcc/arm-none-eabi/14.2.0/../../../../arm-none-eabi/lib/thumb/arm946e-s/libc.a(libc_tinystdio_exchange.c.o)
 .bss           0x00000000        0x0 /opt/wonderful/toolchain/gcc-arm-none-eabi/lib/gcc/arm-none-eabi/14.2.0/../../../../arm-none-eabi/lib/thumb/arm946e-s/libc.a(libc_tinystdio_exchange.c.o)
 .text          0x00000000        0x0 /opt/wonderful/toolchain/gcc-arm-none-eabi/lib/gcc/arm-none-eabi/14.2.0/../../../../arm-none-eabi/lib/thumb/arm946e-s/libc.a(libc_tinystdio_fdopen.c.o)
 .data          0x00000000        0x0 /opt/wonderful/toolchain/gcc-arm-none-eabi/lib/gcc/arm-none-eabi/14.2.0/../../../../arm-none-eabi/lib/thumb/arm946e-s/libc.a(libc_tinystdio_fdopen.c.o)
 .bss           0x00000000        0x0 /opt/wonderful/toolchain/gcc-arm-none-eabi/lib/gcc/arm-none-eabi/14.2.0/../../../../arm-none-eabi/lib/thumb/arm946e-s/libc.a(libc_tinystdio_fdopen.c.o)
 .text          0x00000000        0x0 /opt/wonderful/toolchain/gcc-arm-none-eabi/lib/gcc/arm-none-eabi/14.2.0/../../../../arm-none-eabi/lib/thumb/arm946e-s/libc.a(libc_tinystdio_fopen.c.o)
 .data          0x00000000        0x0 /opt/wonderful/toolchain/gcc-arm-none-eabi/lib/gcc/arm-none-eabi/14.2.0/../../../../arm-none-eabi/lib/thumb/arm946e-s/libc.a(libc_tinystdio_fopen.c.o)
 .bss           0x00000000        0x0 /opt/wonderful/toolchain/gcc-arm-none-eabi/lib/gcc/arm-none-eabi/14.2.0/../../../../arm-none-eabi/lib/thumb/arm946e-s/libc.a(libc_tinystdio_fopen.c.o)
 .text          0x00000000        0x0 /opt/wonderful/toolchain/gcc-arm-none-eabi/lib/gcc/arm-none-eabi/14.2.0/../../../../arm-none-eabi/lib/thumb/arm946e-s/libc.a(memmove.c.o)
 .data          0x00000000        0x0 /opt/wonderful/toolchain/gcc-arm-none-eabi/lib/gcc/arm-none-eabi/14.2.0/../../../../arm-none-eabi/lib/thumb/arm946e-s/libc.a(memmove.c.o)
 .bss           0x00000000        0x0 /opt/wonderful/toolchain/gcc-arm-none-eabi/lib/gcc/arm-none-eabi/14.2.0/../../../../arm-none-eabi/lib/thumb/arm946e-s/libc.a(memmove.c.o)
 .text          0x00000000        0x0 /opt/wonderful/toolchain/gcc-arm-none-eabi/lib/gcc/arm-none-eabi/14.2.0/../../../../arm-none-eabi/lib/thumb/arm946e-s/libc.a(libc_misc_fini.c.o)
 .data          0x00000000        0x0 /opt/wonderful/toolchain/gcc-arm-none-eabi/lib/gcc/arm-none-eabi/14.2.0/../../../../arm-none-eabi/lib/thumb/arm946e-s/libc.a(libc_misc_fini.c.o)
 .bss           0x00000000        0x0 /opt/wonderful/toolchain/gcc-arm-none-eabi/lib/gcc/arm-none-eabi/14.2.0/../../../../arm-none-eabi/lib/thumb/arm946e-s/libc.a(libc_misc_fini.c.o)
 .text          0x00000000        0x0 /opt/wonderful/toolchain/gcc-arm-none-eabi/lib/gcc/arm-none-eabi/14.2.0/../../../../arm-none-eabi/lib/thumb/arm946e-s/libc.a(libc_stdlib_div.c.o)
 .data          0x00000000        0x0 /opt/wonderful/toolchain/gcc-arm-none-eabi/lib/gcc/arm-none-eabi/14.2.0/../../../../arm-none-eabi/lib/thumb/arm946e-s/libc.a(libc_stdlib_div.c.o)
 .bss           0x00000000        0x0 /opt/wonderful/toolchain/gcc-arm-none-eabi/lib/gcc/arm-none-eabi/14.2.0/../../../../arm-none-eabi/lib/thumb/arm946e-s/libc.a(libc_stdlib_div.c.o)
 .text.div      0x00000000       0x14 /opt/wonderful/toolchain/gcc-arm-none-eabi/lib/gcc/arm-none-eabi/14.2.0/../../../../arm-none-eabi/lib/thumb/arm946e-s/libc.a(libc_stdlib_div.c.o)
 .debug_info    0x00000000      0x104 /opt/wonderful/toolchain/gcc-arm-none-eabi/lib/gcc/arm-none-eabi/14.2.0/../../../../arm-none-eabi/lib/thumb/arm946e-s/libc.a(libc_stdlib_div.c.o)
 .debug_abbrev  0x00000000       0xd9 /opt/wonderful/toolchain/gcc-arm-none-eabi/lib/gcc/arm-none-eabi/14.2.0/../../../../arm-none-eabi/lib/thumb/arm946e-s/libc.a(libc_stdlib_div.c.o)
 .debug_loclists
                0x00000000       0x6a /opt/wonderful/toolchain/gcc-arm-none-eabi/lib/gcc/arm-none-eabi/14.2.0/../../../../arm-none-eabi/lib/thumb/arm946e-s/libc.a(libc_stdlib_div.c.o)
 .debug_aranges
                0x00000000       0x20 /opt/wonderful/toolchain/gcc-arm-none-eabi/lib/gcc/arm-none-eabi/14.2.0/../../../../arm-none-eabi/lib/thumb/arm946e-s/libc.a(libc_stdlib_div.c.o)
 .debug_rnglists
                0x00000000       0x13 /opt/wonderful/toolchain/gcc-arm-none-eabi/lib/gcc/arm-none-eabi/14.2.0/../../../../arm-none-eabi/lib/thumb/arm946e-s/libc.a(libc_stdlib_div.c.o)
 .debug_line    0x00000000       0xaa /opt/wonderful/toolchain/gcc-arm-none-eabi/lib/gcc/arm-none-eabi/14.2.0/../../../../arm-none-eabi/lib/thumb/arm946e-s/libc.a(libc_stdlib_div.c.o)
 .debug_str     0x00000000      0x1ed /opt/wonderful/toolchain/gcc-arm-none-eabi/lib/gcc/arm-none-eabi/14.2.0/../../../../arm-none-eabi/lib/thumb/arm946e-s/libc.a(libc_stdlib_div.c.o)
 .comment       0x00000000       0x23 /opt/wonderful/toolchain/gcc-arm-none-eabi/lib/gcc/arm-none-eabi/14.2.0/../../../../arm-none-eabi/lib/thumb/arm946e-s/libc.a(libc_stdlib_div.c.o)
 .debug_frame   0x00000000       0x28 /opt/wonderful/toolchain/gcc-arm-none-eabi/lib/gcc/arm-none-eabi/14.2.0/../../../../arm-none-eabi/lib/thumb/arm946e-s/libc.a(libc_stdlib_div.c.o)
 .text          0x00000000        0x0 /opt/wonderful/toolchain/gcc-arm-none-eabi/lib/gcc/arm-none-eabi/14.2.0/../../../../arm-none-eabi/lib/thumb/arm946e-s/libc.a(libc_stdlib_getenv.c.o)
 .data          0x00000000        0x0 /opt/wonderful/toolchain/gcc-arm-none-eabi/lib/gcc/arm-none-eabi/14.2.0/../../../../arm-none-eabi/lib/thumb/arm946e-s/libc.a(libc_stdlib_getenv.c.o)
 .bss           0x00000000        0x0 /opt/wonderful/toolchain/gcc-arm-none-eabi/lib/gcc/arm-none-eabi/14.2.0/../../../../arm-none-eabi/lib/thumb/arm946e-s/libc.a(libc_stdlib_getenv.c.o)
 .text          0x00000000        0x0 /opt/wonderful/toolchain/gcc-arm-none-eabi/lib/gcc/arm-none-eabi/14.2.0/../../../../arm-none-eabi/lib/thumb/arm946e-s/libc.a(libc_stdlib_getenv_r.c.o)
 .data          0x00000000        0x0 /opt/wonderful/toolchain/gcc-arm-none-eabi/lib/gcc/arm-none-eabi/14.2.0/../../../../arm-none-eabi/lib/thumb/arm946e-s/libc.a(libc_stdlib_getenv_r.c.o)
 .bss           0x00000000        0x0 /opt/wonderful/toolchain/gcc-arm-none-eabi/lib/gcc/arm-none-eabi/14.2.0/../../../../arm-none-eabi/lib/thumb/arm946e-s/libc.a(libc_stdlib_getenv_r.c.o)
 .text          0x00000000        0x0 /opt/wonderful/toolchain/gcc-arm-none-eabi/lib/gcc/arm-none-eabi/14.2.0/../../../../arm-none-eabi/lib/thumb/arm946e-s/libc.a(libc_string_strnlen.c.o)
 .data          0x00000000        0x0 /opt/wonderful/toolchain/gcc-arm-none-eabi/lib/gcc/arm-none-eabi/14.2.0/../../../../arm-none-eabi/lib/thumb/arm946e-s/libc.a(libc_string_strnlen.c.o)
 .bss           0x00000000        0x0 /opt/wonderful/toolchain/gcc-arm-none-eabi/lib/gcc/arm-none-eabi/14.2.0/../../../../arm-none-eabi/lib/thumb/arm946e-s/libc.a(libc_string_strnlen.c.o)
 .text          0x00000000        0x0 /opt/wonderful/toolchain/gcc-arm-none-eabi/lib/gcc/arm-none-eabi/14.2.0/../../../../arm-none-eabi/lib/thumb/arm946e-s/libc.a(libc_time_gettzinfo.c.o)
 .data          0x00000000        0x0 /opt/wonderful/toolchain/gcc-arm-none-eabi/lib/gcc/arm-none-eabi/14.2.0/../../../../arm-none-eabi/lib/thumb/arm946e-s/libc.a(libc_time_gettzinfo.c.o)
 .text          0x00000000        0x0 /opt/wonderful/toolchain/gcc-arm-none-eabi/lib/gcc/arm-none-eabi/14.2.0/../../../../arm-none-eabi/lib/thumb/arm946e-s/libc.a(libc_time_gmtime_r.c.o)
 .data          0x00000000        0x0 /opt/wonderful/toolchain/gcc-arm-none-eabi/lib/gcc/arm-none-eabi/14.2.0/../../../../arm-none-eabi/lib/thumb/arm946e-s/libc.a(libc_time_gmtime_r.c.o)
 .bss           0x00000000        0x0 /opt/wonderful/toolchain/gcc-arm-none-eabi/lib/gcc/arm-none-eabi/14.2.0/../../../../arm-none-eabi/lib/thumb/arm946e-s/libc.a(libc_time_gmtime_r.c.o)
 .text          0x00000000        0x0 /opt/wonderful/toolchain/gcc-arm-none-eabi/lib/gcc/arm-none-eabi/14.2.0/../../../../arm-none-eabi/lib/thumb/arm946e-s/libc.a(libc_tinystdio_atomic_load.c.o)
 .data          0x00000000        0x0 /opt/wonderful/toolchain/gcc-arm-none-eabi/lib/gcc/arm-none-eabi/14.2.0/../../../../arm-none-eabi/lib/thumb/arm946e-s/libc.a(libc_tinystdio_atomic_load.c.o)
 .bss           0x00000000        0x0 /opt/wonderful/toolchain/gcc-arm-none-eabi/lib/gcc/arm-none-eabi/14.2.0/../../../../arm-none-eabi/lib/thumb/arm946e-s/libc.a(libc_tinystdio_atomic_load.c.o)
 .text          0x00000000        0x0 /opt/wonderful/toolchain/gcc-arm-none-eabi/lib/gcc/arm-none-eabi/14.2.0/../../../../arm-none-eabi/lib/thumb/arm946e-s/libc.a(libc_tinystdio_bufio.c.o)
 .data          0x00000000        0x0 /opt/wonderful/toolchain/gcc-arm-none-eabi/lib/gcc/arm-none-eabi/14.2.0/../../../../arm-none-eabi/lib/thumb/arm946e-s/libc.a(libc_tinystdio_bufio.c.o)
 .bss           0x00000000        0x0 /opt/wonderful/toolchain/gcc-arm-none-eabi/lib/gcc/arm-none-eabi/14.2.0/../../../../arm-none-eabi/lib/thumb/arm946e-s/libc.a(libc_tinystdio_bufio.c.o)
 .text          0x00000000        0x0 /opt/wonderful/toolchain/gcc-arm-none-eabi/lib/gcc/arm-none-eabi/14.2.0/../../../../arm-none-eabi/lib/thumb/arm946e-s/libc.a(libc_tinystdio_dtox_engine.c.o)
 .data          0x00000000        0x0 /opt/wonderful/toolchain/gcc-arm-none-eabi/lib/gcc/arm-none-eabi/14.2.0/../../../../arm-none-eabi/lib/thumb/arm946e-s/libc.a(libc_tinystdio_dtox_engine.c.o)
 .bss           0x00000000        0x0 /opt/wonderful/toolchain/gcc-arm-none-eabi/lib/gcc/arm-none-eabi/14.2.0/../../../../arm-none-eabi/lib/thumb/arm946e-s/libc.a(libc_tinystdio_dtox_engine.c.o)
 .text          0x00000000        0x0 /opt/wonderful/toolchain/gcc-arm-none-eabi/lib/gcc/arm-none-eabi/14.2.0/../../../../arm-none-eabi/lib/thumb/arm946e-s/libc.a(libc_tinystdio_fgetc.c.o)
 .data          0x00000000        0x0 /opt/wonderful/toolchain/gcc-arm-none-eabi/lib/gcc/arm-none-eabi/14.2.0/../../../../arm-none-eabi/lib/thumb/arm946e-s/libc.a(libc_tinystdio_fgetc.c.o)
 .bss           0x00000000        0x0 /opt/wonderful/toolchain/gcc-arm-none-eabi/lib/gcc/arm-none-eabi/14.2.0/../../../../arm-none-eabi/lib/thumb/arm946e-s/libc.a(libc_tinystdio_fgetc.c.o)
 .text          0x00000000        0x0 /opt/wonderful/toolchain/gcc-arm-none-eabi/lib/gcc/arm-none-eabi/14.2.0/../../../../arm-none-eabi/lib/thumb/arm946e-s/libc.a(libc_tinystdio_filestrget.c.o)
 .data          0x00000000        0x0 /opt/wonderful/toolchain/gcc-arm-none-eabi/lib/gcc/arm-none-eabi/14.2.0/../../../../arm-none-eabi/lib/thumb/arm946e-s/libc.a(libc_tinystdio_filestrget.c.o)
 .bss           0x00000000        0x0 /opt/wonderful/toolchain/gcc-arm-none-eabi/lib/gcc/arm-none-eabi/14.2.0/../../../../arm-none-eabi/lib/thumb/arm946e-s/libc.a(libc_tinystdio_filestrget.c.o)
 .text          0x00000000        0x0 /opt/wonderful/toolchain/gcc-arm-none-eabi/lib/gcc/arm-none-eabi/14.2.0/../../../../arm-none-eabi/lib/thumb/arm946e-s/libc.a(libc_tinystdio_filestrput.c.o)
 .data          0x00000000        0x0 /opt/wonderful/toolchain/gcc-arm-none-eabi/lib/gcc/arm-none-eabi/14.2.0/../../../../arm-none-eabi/lib/thumb/arm946e-s/libc.a(libc_tinystdio_filestrput.c.o)
 .bss           0x00000000        0x0 /opt/wonderful/toolchain/gcc-arm-none-eabi/lib/gcc/arm-none-eabi/14.2.0/../../../../arm-none-eabi/lib/thumb/arm946e-s/libc.a(libc_tinystdio_filestrput.c.o)
 .text          0x00000000        0x0 /opt/wonderful/toolchain/gcc-arm-none-eabi/lib/gcc/arm-none-eabi/14.2.0/../../../../arm-none-eabi/lib/thumb/arm946e-s/libc.a(libc_tinystdio_fputc.c.o)
 .data          0x00000000        0x0 /opt/wonderful/toolchain/gcc-arm-none-eabi/lib/gcc/arm-none-eabi/14.2.0/../../../../arm-none-eabi/lib/thumb/arm946e-s/libc.a(libc_tinystdio_fputc.c.o)
 .bss           0x00000000        0x0 /opt/wonderful/toolchain/gcc-arm-none-eabi/lib/gcc/arm-none-eabi/14.2.0/../../../../arm-none-eabi/lib/thumb/arm946e-s/libc.a(libc_tinystdio_fputc.c.o)
 .text          0x00000000        0x0 /opt/wonderful/toolchain/gcc-arm-none-eabi/lib/gcc/arm-none-eabi/14.2.0/../../../../arm-none-eabi/lib/thumb/arm946e-s/libc.a(libc_tinystdio_fseeko.c.o)
 .data          0x00000000        0x0 /opt/wonderful/toolchain/gcc-arm-none-eabi/lib/gcc/arm-none-eabi/14.2.0/../../../../arm-none-eabi/lib/thumb/arm946e-s/libc.a(libc_tinystdio_fseeko.c.o)
 .bss           0x00000000        0x0 /opt/wonderful/toolchain/gcc-arm-none-eabi/lib/gcc/arm-none-eabi/14.2.0/../../../../arm-none-eabi/lib/thumb/arm946e-s/libc.a(libc_tinystdio_fseeko.c.o)
 .text          0x00000000        0x0 /opt/wonderful/toolchain/gcc-arm-none-eabi/lib/gcc/arm-none-eabi/14.2.0/../../../../arm-none-eabi/lib/thumb/arm946e-s/libc.a(libc_tinystdio_sflags.c.o)
 .data          0x00000000        0x0 /opt/wonderful/toolchain/gcc-arm-none-eabi/lib/gcc/arm-none-eabi/14.2.0/../../../../arm-none-eabi/lib/thumb/arm946e-s/libc.a(libc_tinystdio_sflags.c.o)
 .bss           0x00000000        0x0 /opt/wonderful/toolchain/gcc-arm-none-eabi/lib/gcc/arm-none-eabi/14.2.0/../../../../arm-none-eabi/lib/thumb/arm946e-s/libc.a(libc_tinystdio_sflags.c.o)
 .text          0x00000000        0x0 /opt/wonderful/toolchain/gcc-arm-none-eabi/lib/gcc/arm-none-eabi/14.2.0/../../../../arm-none-eabi/lib/thumb/arm946e-s/libc.a(libc_tinystdio_ungetc.c.o)
 .data          0x00000000        0x0 /opt/wonderful/toolchain/gcc-arm-none-eabi/lib/gcc/arm-none-eabi/14.2.0/../../../../arm-none-eabi/lib/thumb/arm946e-s/libc.a(libc_tinystdio_ungetc.c.o)
 .bss           0x00000000        0x0 /opt/wonderful/toolchain/gcc-arm-none-eabi/lib/gcc/arm-none-eabi/14.2.0/../../../../arm-none-eabi/lib/thumb/arm946e-s/libc.a(libc_tinystdio_ungetc.c.o)
 .text          0x00000000        0x0 /opt/wonderful/toolchain/gcc-arm-none-eabi/lib/gcc/arm-none-eabi/14.2.0/../../../../arm-none-eabi/lib/thumb/arm946e-s/libc.a(libc_tinystdio_compare_exchange.c.o)
 .data          0x00000000        0x0 /opt/wonderful/toolchain/gcc-arm-none-eabi/lib/gcc/arm-none-eabi/14.2.0/../../../../arm-none-eabi/lib/thumb/arm946e-s/libc.a(libc_tinystdio_compare_exchange.c.o)
 .bss           0x00000000        0x0 /opt/wonderful/toolchain/gcc-arm-none-eabi/lib/gcc/arm-none-eabi/14.2.0/../../../../arm-none-eabi/lib/thumb/arm946e-s/libc.a(libc_tinystdio_compare_exchange.c.o)
 .text          0x00000000        0x0 /opt/wonderful/toolchain/gcc-arm-none-eabi/lib/gcc/arm-none-eabi/14.2.0/../../../../arm-none-eabi/lib/thumb/arm946e-s/libc.a(libc_stdlib_environ.c.o)
 .text          0x00000000        0x0 /opt/blocksds/core/libs/libnds/lib/libnds9.a(syscalls.c.o)
 .data          0x00000000        0x0 /opt/blocksds/core/libs/libnds/lib/libnds9.a(syscalls.c.o)
 .bss           0x00000000        0x0 /opt/blocksds/core/libs/libnds/lib/libnds9.a(syscalls.c.o)
 .text.getpid   0x00000000        0x4 /opt/blocksds/core/libs/libnds/lib/libnds9.a(syscalls.c.o)
 .text.getgid   0x00000000        0x4 /opt/blocksds/core/libs/libnds/lib/libnds9.a(syscalls.c.o)
 .text.getegid  0x00000000        0x4 /opt/blocksds/core/libs/libnds/lib/libnds9.a(syscalls.c.o)
 .text.getuid   0x00000000        0x4 /opt/blocksds/core/libs/libnds/lib/libnds9.a(syscalls.c.o)
 .text.geteuid  0x00000000        0x4 /opt/blocksds/core/libs/libnds/lib/libnds9.a(syscalls.c.o)
 .text.setgid   0x00000000       0x1c /opt/blocksds/core/libs/libnds/lib/libnds9.a(syscalls.c.o)
 .text.setegid  0x00000000       0x1c /opt/blocksds/core/libs/libnds/lib/libnds9.a(syscalls.c.o)
 .text.setuid   0x00000000       0x1c /opt/blocksds/core/libs/libnds/lib/libnds9.a(syscalls.c.o)
 .text.seteuid  0x00000000       0x1c /opt/blocksds/core/libs/libnds/lib/libnds9.a(syscalls.c.o)
 .text.kill     0x00000000       0x28 /opt/blocksds/core/libs/libnds/lib/libnds9.a(syscalls.c.o)
 .text.times    0x00000000        0x8 /opt/blocksds/core/libs/libnds/lib/libnds9.a(syscalls.c.o)
 .text.fork     0x00000000       0x1c /opt/blocksds/core/libs/libnds/lib/libnds9.a(syscalls.c.o)
 .text.execve   0x00000000       0x1c /opt/blocksds/core/libs/libnds/lib/libnds9.a(syscalls.c.o)
 .text.getentropy
                0x00000000       0x1c /opt/blocksds/core/libs/libnds/lib/libnds9.a(syscalls.c.o)
 .text.getauxval
                0x00000000       0x18 /opt/blocksds/core/libs/libnds/lib/libnds9.a(syscalls.c.o)
 .bss.__dso_handle
                0x00000000        0x4 /opt/blocksds/core/libs/libnds/lib/libnds9.a(syscalls.c.o)
 .data          0x00000000        0x0 /opt/wonderful/toolchain/gcc-arm-none-eabi/lib/gcc/arm-none-eabi/14.2.0/thumb/arm946e-s/libgcc.a(_thumb1_case_uqi.o)
 .bss           0x00000000        0x0 /opt/wonderful/toolchain/gcc-arm-none-eabi/lib/gcc/arm-none-eabi/14.2.0/thumb/arm946e-s/libgcc.a(_thumb1_case_uqi.o)
 .data          0x00000000        0x0 /opt/wonderful/toolchain/gcc-arm-none-eabi/lib/gcc/arm-none-eabi/14.2.0/thumb/arm946e-s/libgcc.a(_thumb1_case_uhi.o)
 .bss           0x00000000        0x0 /opt/wonderful/toolchain/gcc-arm-none-eabi/lib/gcc/arm-none-eabi/14.2.0/thumb/arm946e-s/libgcc.a(_thumb1_case_uhi.o)
 .data          0x00000000        0x0 /opt/wonderful/toolchain/gcc-arm-none-eabi/lib/gcc/arm-none-eabi/14.2.0/thumb/arm946e-s/libgcc.a(_udivsi3.o)
 .bss           0x00000000        0x0 /opt/wonderful/toolchain/gcc-arm-none-eabi/lib/gcc/arm-none-eabi/14.2.0/thumb/arm946e-s/libgcc.a(_udivsi3.o)
 .data          0x00000000        0x0 /opt/wonderful/toolchain/gcc-arm-none-eabi/lib/gcc/arm-none-eabi/14.2.0/thumb/arm946e-s/libgcc.a(_divsi3.o)
 .bss           0x00000000        0x0 /opt/wonderful/toolchain/gcc-arm-none-eabi/lib/gcc/arm-none-eabi/14.2.0/thumb/arm946e-s/libgcc.a(_divsi3.o)
 .data          0x00000000        0x0 /opt/wonderful/toolchain/gcc-arm-none-eabi/lib/gcc/arm-none-eabi/14.2.0/thumb/arm946e-s/libgcc.a(_dvmd_tls.o)
 .bss           0x00000000        0x0 /opt/wonderful/toolchain/gcc-arm-none-eabi/lib/gcc/arm-none-eabi/14.2.0/thumb/arm946e-s/libgcc.a(_dvmd_tls.o)
 .data          0x00000000        0x0 /opt/wonderful/toolchain/gcc-arm-none-eabi/lib/gcc/arm-none-eabi/14.2.0/thumb/arm946e-s/libgcc.a(_lshrdi3.o)
 .bss           0x00000000        0x0 /opt/wonderful/toolchain/gcc-arm-none-eabi/lib/gcc/arm-none-eabi/14.2.0/thumb/arm946e-s/libgcc.a(_lshrdi3.o)
 .data          0x00000000        0x0 /opt/wonderful/toolchain/gcc-arm-none-eabi/lib/gcc/arm-none-eabi/14.2.0/thumb/arm946e-s/libgcc.a(_ashrdi3.o)
 .bss           0x00000000        0x0 /opt/wonderful/toolchain/gcc-arm-none-eabi/lib/gcc/arm-none-eabi/14.2.0/thumb/arm946e-s/libgcc.a(_ashrdi3.o)
 .data          0x00000000        0x0 /opt/wonderful/toolchain/gcc-arm-none-eabi/lib/gcc/arm-none-eabi/14.2.0/thumb/arm946e-s/libgcc.a(_ashldi3.o)
 .bss           0x00000000        0x0 /opt/wonderful/toolchain/gcc-arm-none-eabi/lib/gcc/arm-none-eabi/14.2.0/thumb/arm946e-s/libgcc.a(_ashldi3.o)
 .data          0x00000000        0x0 /opt/wonderful/toolchain/gcc-arm-none-eabi/lib/gcc/arm-none-eabi/14.2.0/thumb/arm946e-s/libgcc.a(_arm_addsubdf3.o)
 .bss           0x00000000        0x0 /opt/wonderful/toolchain/gcc-arm-none-eabi/lib/gcc/arm-none-eabi/14.2.0/thumb/arm946e-s/libgcc.a(_arm_addsubdf3.o)
 .data          0x00000000        0x0 /opt/wonderful/toolchain/gcc-arm-none-eabi/lib/gcc/arm-none-eabi/14.2.0/thumb/arm946e-s/libgcc.a(_arm_cmpdf2.o)
 .bss           0x00000000        0x0 /opt/wonderful/toolchain/gcc-arm-none-eabi/lib/gcc/arm-none-eabi/14.2.0/thumb/arm946e-s/libgcc.a(_arm_cmpdf2.o)
 .data          0x00000000        0x0 /opt/wonderful/toolchain/gcc-arm-none-eabi/lib/gcc/arm-none-eabi/14.2.0/thumb/arm946e-s/libgcc.a(_arm_truncdfsf2.o)
 .bss           0x00000000        0x0 /opt/wonderful/toolchain/gcc-arm-none-eabi/lib/gcc/arm-none-eabi/14.2.0/thumb/arm946e-s/libgcc.a(_arm_truncdfsf2.o)
 .data          0x00000000        0x0 /opt/wonderful/toolchain/gcc-arm-none-eabi/lib/gcc/arm-none-eabi/14.2.0/thumb/arm946e-s/libgcc.a(_clzsi2.o)
 .bss           0x00000000        0x0 /opt/wonderful/toolchain/gcc-arm-none-eabi/lib/gcc/arm-none-eabi/14.2.0/thumb/arm946e-s/libgcc.a(_clzsi2.o)
 .data          0x00000000        0x0 /opt/wonderful/toolchain/gcc-arm-none-eabi/lib/gcc/arm-none-eabi/14.2.0/thumb/arm946e-s/libgcc.a(_clzdi2.o)
 .bss           0x00000000        0x0 /opt/wonderful/toolchain/gcc-arm-none-eabi/lib/gcc/arm-none-eabi/14.2.0/thumb/arm946e-s/libgcc.a(_clzdi2.o)
 .data          0x00000000        0x0 /opt/wonderful/toolchain/gcc-arm-none-eabi/lib/gcc/arm-none-eabi/14.2.0/thumb/arm946e-s/libgcc.a(_aeabi_ldivmod.o)
 .bss           0x00000000        0x0 /opt/wonderful/toolchain/gcc-arm-none-eabi/lib/gcc/arm-none-eabi/14.2.0/thumb/arm946e-s/libgcc.a(_aeabi_ldivmod.o)
 .data          0x00000000        0x0 /opt/wonderful/toolchain/gcc-arm-none-eabi/lib/gcc/arm-none-eabi/14.2.0/thumb/arm946e-s/libgcc.a(_aeabi_uldivmod.o)
 .bss           0x00000000        0x0 /opt/wonderful/toolchain/gcc-arm-none-eabi/lib/gcc/arm-none-eabi/14.2.0/thumb/arm946e-s/libgcc.a(_aeabi_uldivmod.o)
 .data          0x00000000        0x0 /opt/wonderful/toolchain/gcc-arm-none-eabi/lib/gcc/arm-none-eabi/14.2.0/thumb/arm946e-s/libgcc.a(_muldi3.o)
 .bss           0x00000000        0x0 /opt/wonderful/toolchain/gcc-arm-none-eabi/lib/gcc/arm-none-eabi/14.2.0/thumb/arm946e-s/libgcc.a(_muldi3.o)
 .data          0x00000000        0x0 /opt/wonderful/toolchain/gcc-arm-none-eabi/lib/gcc/arm-none-eabi/14.2.0/thumb/arm946e-s/libgcc.a(_udivmoddi4.o)
 .bss           0x00000000        0x0 /opt/wonderful/toolchain/gcc-arm-none-eabi/lib/gcc/arm-none-eabi/14.2.0/thumb/arm946e-s/libgcc.a(_udivmoddi4.o)
 .ARM.extab     0x00000000        0x0 /opt/wonderful/toolchain/gcc-arm-none-eabi/lib/gcc/arm-none-eabi/14.2.0/thumb/arm946e-s/libgcc.a(_udivmoddi4.o)
 .text          0x00000000        0x0 /opt/wonderful/toolchain/gcc-arm-none-eabi/lib/gcc/arm-none-eabi/14.2.0/thumb/arm946e-s/crtend.o
 .data          0x00000000        0x0 /opt/wonderful/toolchain/gcc-arm-none-eabi/lib/gcc/arm-none-eabi/14.2.0/thumb/arm946e-s/crtend.o
 .bss           0x00000000        0x0 /opt/wonderful/toolchain/gcc-arm-none-eabi/lib/gcc/arm-none-eabi/14.2.0/thumb/arm946e-s/crtend.o
 .rodata        0x00000000       0x24 /opt/wonderful/toolchain/gcc-arm-none-eabi/lib/gcc/arm-none-eabi/14.2.0/thumb/arm946e-s/crtend.o
 .tm_clone_table
                0x00000000        0x0 /opt/wonderful/toolchain/gcc-arm-none-eabi/lib/gcc/arm-none-eabi/14.2.0/thumb/arm946e-s/crtend.o
 .text          0x00000000        0x0 /opt/wonderful/toolchain/gcc-arm-none-eabi/lib/gcc/arm-none-eabi/14.2.0/thumb/arm946e-s/crtn.o
 .data          0x00000000        0x0 /opt/wonderful/toolchain/gcc-arm-none-eabi/lib/gcc/arm-none-eabi/14.2.0/thumb/arm946e-s/crtn.o
 .bss           0x00000000        0x0 /opt/wonderful/toolchain/gcc-arm-none-eabi/lib/gcc/arm-none-eabi/14.2.0/thumb/arm946e-s/crtn.o

Memory Configuration

Name             Origin             Length             Attributes
ewram            0x02000000         0x00380000
dtcm             0x02ff0000         0x00004000
itcm             0x01000000         0x00008000
*default*        0x00000000         0xffffffff

Linker script and memory map

                0x00000000                        PROVIDE (__dtcm_data_size = 0x0)
                0x00000001                        ASSERT (((__dtcm_data_size & 0x3) == 0x0), __dtcm_data_size must be a multiple of 4)
                0x00004000                        PROVIDE (__dldi_size = 0x4000)
                0x00000040                        PROVIDE (__dtcm_reserved_size = 0x40)
                0x00000001                        ASSERT (((__dtcm_reserved_size & 0x3) == 0x0), __dtcm_reserved_size must be a multiple of 4)
                0x00000100                        PROVIDE (__svc_stack_size = 0x100)
                0x00000001                        ASSERT (((__svc_stack_size & 0x3) == 0x0), __svc_stack_size must be a multiple of 4)
                0x00000100                        PROVIDE (__irq_stack_size = 0x100)
                0x00000001                        ASSERT (((__irq_stack_size & 0x3) == 0x0), __irq_stack_size must be a multiple of 4)
                0x00000000                        PROVIDE (__usr_stack_size = 0x0)
                0x00000001                        ASSERT (((__usr_stack_size & 0x3) == 0x0), __usr_stack_size must be a multiple of 4)
                0x02380000                        __ewram_end = (ORIGIN (ewram) + LENGTH (ewram))
                0x02380000                        __eheap_end = (ORIGIN (ewram) + LENGTH (ewram))
                0x02ff0000                        __dtcm_start = ORIGIN (dtcm)
                0x02ff4000                        __dtcm_top = (ORIGIN (dtcm) + LENGTH (dtcm))
                0x02ff3ff8                        __irq_flags = (__dtcm_top - 0x8)
                0x02ff3ffc                        __irq_vector = (__dtcm_top - 0x4)
                0x02ff3fc0                        __sp_svc = (__dtcm_top - __dtcm_reserved_size)
                0x02ff3ec0                        __sp_irq = (__sp_svc - __svc_stack_size)
                0x02ff3dc0                        __sp_usr = ((__sp_irq - __irq_stack_size) - __dtcm_data_size)
                0x02ff0000                        __dtcm_data_start = (__dtcm_data_size > 0x0)?__sp_usr:ORIGIN (dtcm)
                0x02ff3dc0                        __dtcm_data_top = (__dtcm_data_size > 0x0)?(__sp_irq - __irq_stack_size):(__sp_usr - __usr_stack_size)
                0x0000000e                        __dldi_log2_size = (LOG2CEIL ((__dldi_size + 0x1)) - 0x1)

.secure         0x02000000      0x800
 *(.secure)
 .secure        0x02000000      0x800 /opt/blocksds/core/libs/libnds/lib/libnds9.a(securearea.c.o)
                0x02000000                __secure_area__

.crt0           0x02000800      0x2f4
                0x02000800                        __text_start = .
 *(.crt0)
 .crt0          0x02000800      0x2f4 /opt/blocksds/core/sys/crts/ds_arm9_crt0.o
                0x02000800                _start
                0x02000af4                        . = ALIGN (0x4)

.dldi           0x02000b00     0x4000
                0x02000b00                        __dldi_start = .
 *(.dldi)
 .dldi          0x02000b00       0x88 /opt/blocksds/core/libs/libnds/lib/libnds9.a(dldi_stub.s.o)
                0x02000b00                _io_dldi_stub
                0x02000b88                        . = ALIGN (0x4)
                0x02000b88                        __dldi_data_end = .
                0x02004b00                        __dldi_end = (__dldi_data_end > __dldi_start)?(__dldi_start + __dldi_size):__dldi_start
                0x02004b00                        . = __dldi_end
 *fill*         0x02000b88     0x3f78 00
                0x02004b00                        . = ALIGN (0x4)

.plt
 *(.plt)

.init           0x02004b00        0x8
 *(SORT_NONE(.init))
 .init          0x02004b00        0x8 /opt/wonderful/toolchain/gcc-arm-none-eabi/lib/gcc/arm-none-eabi/14.2.0/thumb/arm946e-s/crtn.o

.text           0x02004b08     0xf328
 *(EXCLUDE_FILE(*.twl* *.itcm*) .text)
 .text          0x02004b08       0x14 /opt/wonderful/toolchain/gcc-arm-none-eabi/lib/gcc/arm-none-eabi/14.2.0/../../../../arm-none-eabi/lib/thumb/arm946e-s/libc.a(strcmp.S.o)
                0x02004b08                strcmp
 .text          0x02004b1c        0xe /opt/wonderful/toolchain/gcc-arm-none-eabi/lib/gcc/arm-none-eabi/14.2.0/../../../../arm-none-eabi/lib/thumb/arm946e-s/libc.a(strlen.S.o)
                0x02004b1c                strlen
 *fill*         0x02004b2a        0x2 ff
 .text          0x02004b2c       0x14 /opt/wonderful/toolchain/gcc-arm-none-eabi/lib/gcc/arm-none-eabi/14.2.0/thumb/arm946e-s/libgcc.a(_thumb1_case_uqi.o)
                0x02004b2c                __gnu_thumb1_case_uqi
 .text          0x02004b40       0x14 /opt/wonderful/toolchain/gcc-arm-none-eabi/lib/gcc/arm-none-eabi/14.2.0/thumb/arm946e-s/libgcc.a(_thumb1_case_uhi.o)
                0x02004b40                __gnu_thumb1_case_uhi
 .text          0x02004b54      0x214 /opt/wonderful/toolchain/gcc-arm-none-eabi/lib/gcc/arm-none-eabi/14.2.0/thumb/arm946e-s/libgcc.a(_udivsi3.o)
                0x02004b54                __udivsi3
                0x02004b54                __aeabi_uidiv
                0x02004d48                __aeabi_uidivmod
 .text          0x02004d68      0x248 /opt/wonderful/toolchain/gcc-arm-none-eabi/lib/gcc/arm-none-eabi/14.2.0/thumb/arm946e-s/libgcc.a(_divsi3.o)
                0x02004d68                __aeabi_idiv
                0x02004d68                __divsi3
                0x02004f90                __aeabi_idivmod
 .text          0x02004fb0        0x4 /opt/wonderful/toolchain/gcc-arm-none-eabi/lib/gcc/arm-none-eabi/14.2.0/thumb/arm946e-s/libgcc.a(_dvmd_tls.o)
                0x02004fb0                __aeabi_ldiv0
                0x02004fb0                __aeabi_idiv0
 .text          0x02004fb4       0x18 /opt/wonderful/toolchain/gcc-arm-none-eabi/lib/gcc/arm-none-eabi/14.2.0/thumb/arm946e-s/libgcc.a(_lshrdi3.o)
                0x02004fb4                __aeabi_llsr
                0x02004fb4                __lshrdi3
 .text          0x02004fcc       0x1c /opt/wonderful/toolchain/gcc-arm-none-eabi/lib/gcc/arm-none-eabi/14.2.0/thumb/arm946e-s/libgcc.a(_ashrdi3.o)
                0x02004fcc                __ashrdi3
                0x02004fcc                __aeabi_lasr
 .text          0x02004fe8       0x18 /opt/wonderful/toolchain/gcc-arm-none-eabi/lib/gcc/arm-none-eabi/14.2.0/thumb/arm946e-s/libgcc.a(_ashldi3.o)
                0x02004fe8                __ashldi3
                0x02004fe8                __aeabi_llsl
 .text          0x02005000      0x3c0 /opt/wonderful/toolchain/gcc-arm-none-eabi/lib/gcc/arm-none-eabi/14.2.0/thumb/arm946e-s/libgcc.a(_arm_addsubdf3.o)
                0x02005000                __aeabi_drsub
                0x02005008                __subdf3
                0x02005008                __aeabi_dsub
                0x0200500c                __adddf3
                0x0200500c                __aeabi_dadd
                0x020052b8                __aeabi_ui2d
                0x020052b8                __floatunsidf
                0x020052dc                __floatsidf
                0x020052dc                __aeabi_i2d
                0x02005304                __extendsfdf2
                0x02005304                __aeabi_f2d
                0x0200534c                __aeabi_ul2d
                0x0200534c                __floatundidf
                0x02005360                __aeabi_l2d
                0x02005360                __floatdidf
 .text          0x020053c0      0x12c /opt/wonderful/toolchain/gcc-arm-none-eabi/lib/gcc/arm-none-eabi/14.2.0/thumb/arm946e-s/libgcc.a(_arm_cmpdf2.o)
                0x020053c0                __gtdf2
                0x020053c0                __gedf2
                0x020053c8                __ledf2
                0x020053c8                __ltdf2
                0x020053d0                __cmpdf2
                0x020053d0                __eqdf2
                0x020053d0                __nedf2
                0x02005458                __aeabi_cdrcmple
                0x02005474                __aeabi_cdcmpeq
                0x02005474                __aeabi_cdcmple
                0x02005488                __aeabi_dcmpeq
                0x0200549c                __aeabi_dcmplt
                0x020054b0                __aeabi_dcmple
                0x020054c4                __aeabi_dcmpge
                0x020054d8                __aeabi_dcmpgt
 .text          0x020054ec       0xa0 /opt/wonderful/toolchain/gcc-arm-none-eabi/lib/gcc/arm-none-eabi/14.2.0/thumb/arm946e-s/libgcc.a(_arm_truncdfsf2.o)
                0x020054ec                __aeabi_d2f
                0x020054ec                __truncdfsf2
 .text          0x0200558c        0x8 /opt/wonderful/toolchain/gcc-arm-none-eabi/lib/gcc/arm-none-eabi/14.2.0/thumb/arm946e-s/libgcc.a(_clzsi2.o)
                0x0200558c                __clzsi2
 .text          0x02005594       0x14 /opt/wonderful/toolchain/gcc-arm-none-eabi/lib/gcc/arm-none-eabi/14.2.0/thumb/arm946e-s/libgcc.a(_clzdi2.o)
                0x02005594                __clzdi2
 .text          0x020055a8       0xd4 /opt/wonderful/toolchain/gcc-arm-none-eabi/lib/gcc/arm-none-eabi/14.2.0/thumb/arm946e-s/libgcc.a(_aeabi_ldivmod.o)
                0x020055a8                __aeabi_ldivmod
 .text          0x0200567c       0x3c /opt/wonderful/toolchain/gcc-arm-none-eabi/lib/gcc/arm-none-eabi/14.2.0/thumb/arm946e-s/libgcc.a(_aeabi_uldivmod.o)
                0x0200567c                __aeabi_uldivmod
 .text          0x020056b8       0x60 /opt/wonderful/toolchain/gcc-arm-none-eabi/lib/gcc/arm-none-eabi/14.2.0/thumb/arm946e-s/libgcc.a(_muldi3.o)
                0x020056b8                __aeabi_lmul
                0x020056b8                __muldi3
 .text          0x02005718      0x198 /opt/wonderful/toolchain/gcc-arm-none-eabi/lib/gcc/arm-none-eabi/14.2.0/thumb/arm946e-s/libgcc.a(_udivmoddi4.o)
                0x02005718                __udivmoddi4
 *(EXCLUDE_FILE(*.twl* *.itcm*) .stub)
 *(EXCLUDE_FILE(*.twl* *.itcm*) .text.*)
 .text.create_player
                0x020058b0       0x1c build/test_repository/source/player/player.c.o
                0x020058b0                create_player
 .text.move_player
                0x020058cc       0x20 build/test_repository/source/player/player.c.o
                0x020058cc                move_player
 .text.startup.main
                0x020058ec      0x25c build/test_repository/source/main.c.o
                0x020058ec                main
 .text.NF_Error
                0x02005b48      0x2d8 /opt/blocksds/external/nflib/lib/libnflib.a(nf_basic.c.o)
                0x02005b48                NF_Error
 .text.NF_SetRootFolder
                0x02005e20      0x1dc /opt/blocksds/external/nflib/lib/libnflib.a(nf_basic.c.o)
                0x02005e20                NF_SetRootFolder
 .text.NF_DmaMemCopy
                0x02005ffc       0x7c /opt/blocksds/external/nflib/lib/libnflib.a(nf_basic.c.o)
                0x02005ffc                NF_DmaMemCopy
 .text.NF_FileLoad
                0x02006078       0xac /opt/blocksds/external/nflib/lib/libnflib.a(nf_basic.c.o)
                0x02006078                NF_FileLoad
 .text.NF_FileExists
                0x02006124       0x30 /opt/blocksds/external/nflib/lib/libnflib.a(nf_basic.c.o)
                0x02006124                NF_FileExists
 .text.NF_InitCmapBuffers
                0x02006154       0x98 /opt/blocksds/external/nflib/lib/libnflib.a(nf_collision.c.o)
                0x02006154                NF_InitCmapBuffers
 .text.NF_LoadCollisionMap
                0x020061ec       0xd4 /opt/blocksds/external/nflib/lib/libnflib.a(nf_collision.c.o)
                0x020061ec                NF_LoadCollisionMap
 .text.NF_GetTile
                0x020062c0       0x44 /opt/blocksds/external/nflib/lib/libnflib.a(nf_collision.c.o)
                0x020062c0                NF_GetTile
 .text.NF_InitTextSys
                0x02006304       0x34 /opt/blocksds/external/nflib/lib/libnflib.a(nf_text.c.o)
                0x02006304                NF_InitTextSys
 .text.NF_LoadTextFont
                0x02006338      0x1dc /opt/blocksds/external/nflib/lib/libnflib.a(nf_text.c.o)
                0x02006338                NF_LoadTextFont
 .text.NF_CreateTextLayer
                0x02006514       0x8c /opt/blocksds/external/nflib/lib/libnflib.a(nf_text.c.o)
                0x02006514                NF_CreateTextLayer
 .text.NF_WriteText
                0x020065a0      0x2f8 /opt/blocksds/external/nflib/lib/libnflib.a(nf_text.c.o)
                0x020065a0                NF_WriteText
 .text.NF_UpdateTextLayers
                0x02006898       0x4c /opt/blocksds/external/nflib/lib/libnflib.a(nf_text.c.o)
                0x02006898                NF_UpdateTextLayers
 .text.NF_InitTiledBgBuffers
                0x020068e4       0x94 /opt/blocksds/external/nflib/lib/libnflib.a(nf_tiledbg.c.o)
                0x020068e4                NF_InitTiledBgBuffers
 .text.NF_InitTiledBgSys
                0x02006978      0x164 /opt/blocksds/external/nflib/lib/libnflib.a(nf_tiledbg.c.o)
                0x02006978                NF_InitTiledBgSys
 .text.NF_LoadTiledBg
                0x02006adc      0x1ac /opt/blocksds/external/nflib/lib/libnflib.a(nf_tiledbg.c.o)
                0x02006adc                NF_LoadTiledBg
 .text.NF_DeleteTiledBg
                0x02006c88      0x18c /opt/blocksds/external/nflib/lib/libnflib.a(nf_tiledbg.c.o)
                0x02006c88                NF_DeleteTiledBg
 .text.NF_CreateTiledBg
                0x02006e14      0x56c /opt/blocksds/external/nflib/lib/libnflib.a(nf_tiledbg.c.o)
                0x02006e14                NF_CreateTiledBg
 .text.NF_GetTileMapAddress
                0x02007380       0x88 /opt/blocksds/external/nflib/lib/libnflib.a(nf_tiledbg.c.o)
                0x02007380                NF_GetTileMapAddress
 .text.NF_SetTileOfMap
                0x02007408       0x40 /opt/blocksds/external/nflib/lib/libnflib.a(nf_tiledbg.c.o)
                0x02007408                NF_SetTileOfMap
 .text.NF_UpdateVramMap
                0x02007448       0xf8 /opt/blocksds/external/nflib/lib/libnflib.a(nf_tiledbg.c.o)
                0x02007448                NF_UpdateVramMap
 .text.NF_RotateTileGfx
                0x02007540      0x104 /opt/blocksds/external/nflib/lib/libnflib.a(nf_tiledbg.c.o)
                0x02007540                NF_RotateTileGfx
 .text.NF_Set2D
                0x02007644       0x64 /opt/blocksds/external/nflib/lib/libnflib.a(nf_2d.c.o)
                0x02007644                NF_Set2D
 .text.NF_ShowBg
                0x020076a8       0x74 /opt/blocksds/external/nflib/lib/libnflib.a(nf_2d.c.o)
                0x020076a8                NF_ShowBg
 .text.NF_HideBg
                0x0200771c       0x9c /opt/blocksds/external/nflib/lib/libnflib.a(nf_2d.c.o)
                0x0200771c                NF_HideBg
 .text.NF_ScrollBg
                0x020077b8      0x2fc /opt/blocksds/external/nflib/lib/libnflib.a(nf_2d.c.o)
                0x020077b8                NF_ScrollBg
 .text.NF_InitSpriteBuffers
                0x02007ab4       0x5c /opt/blocksds/external/nflib/lib/libnflib.a(nf_sprite256.c.o)
                0x02007ab4                NF_InitSpriteBuffers
 .text.NF_InitSpriteSys
                0x02007b10      0x204 /opt/blocksds/external/nflib/lib/libnflib.a(nf_sprite256.c.o)
                0x02007b10                NF_InitSpriteSys
 .text.NF_LoadSpriteGfx
                0x02007d14       0x98 /opt/blocksds/external/nflib/lib/libnflib.a(nf_sprite256.c.o)
                0x02007d14                NF_LoadSpriteGfx
 .text.NF_LoadSpritePal
                0x02007dac       0x80 /opt/blocksds/external/nflib/lib/libnflib.a(nf_sprite256.c.o)
                0x02007dac                NF_LoadSpritePal
 .text.NF_VramSpriteGfx
                0x02007e2c      0x298 /opt/blocksds/external/nflib/lib/libnflib.a(nf_sprite256.c.o)
                0x02007e2c                NF_VramSpriteGfx
 .text.NF_VramSpritePal
                0x020080c4       0xb0 /opt/blocksds/external/nflib/lib/libnflib.a(nf_sprite256.c.o)
                0x020080c4                NF_VramSpritePal
 .text.NF_CreateSprite
                0x02008174      0x1c8 /opt/blocksds/external/nflib/lib/libnflib.a(nf_sprite256.c.o)
                0x02008174                NF_CreateSprite
 .text.NF_SpriteOamSet
                0x0200833c       0xc4 /opt/blocksds/external/nflib/lib/libnflib.a(nf_sprite256.c.o)
                0x0200833c                NF_SpriteOamSet
 .text.swiWaitForVBlank
                0x02008400       0x78 /opt/blocksds/core/libs/libnds/lib/libnds9.a(IntrWait.s.o)
                0x02008400                swiWaitForVBlank
                0x02008408                swiIntrWait
 .text.__libnds_mpu_setup
                0x02008478      0x1c4 /opt/blocksds/core/libs/libnds/lib/libnds9.a(mpu_setup.s.o)
                0x02008478                __libnds_mpu_setup
 .text.CP15_MPUDisable
                0x0200863c       0x3c /opt/blocksds/core/libs/libnds/lib/libnds9.a(mpu_setup.s.o)
                0x0200863c                CP15_MPUDisable
 .text.memUncached
                0x02008678       0x20 /opt/blocksds/core/libs/libnds/lib/libnds9.a(mpu_setup.s.o)
                0x02008678                memUncached
 .text.CP15_FlushICache
                0x02008698        0xc /opt/blocksds/core/libs/libnds/lib/libnds9.a(cp15.s.o)
                0x02008698                CP15_FlushICache
 .text.CP15_FlushDCache
                0x020086a4        0xc /opt/blocksds/core/libs/libnds/lib/libnds9.a(cp15.s.o)
                0x020086a4                CP15_FlushDCache
 .text.CP15_WaitForInterrupt
                0x020086b0        0xc /opt/blocksds/core/libs/libnds/lib/libnds9.a(cp15.s.o)
                0x020086b0                CP15_WaitForInterrupt
 .text.CP15_CleanAndFlushDCache
                0x020086bc       0x34 /opt/blocksds/core/libs/libnds/lib/libnds9.a(cp15.s.o)
                0x020086bc                CP15_CleanAndFlushDCache
 .text.dmaSetParams
                0x020086f0       0x1c /opt/blocksds/core/libs/libnds/lib/libnds9.a(dma.s.o)
                0x020086f0                dmaSetParams
 .text.__aeabi_memset
                0x0200870c       0x9c /opt/blocksds/core/libs/libnds/lib/libnds9.a(memset.s.o)
                0x0200870c                __aeabi_memset
                0x02008730                __aeabi_memset8
                0x02008730                __aeabi_memset4
                0x0200873c                __ndsabi_wordset4
                0x02008740                __ndsabi_lwordset4
 .text.__ndsabi_memset1
                0x020087a8       0x10 /opt/blocksds/core/libs/libnds/lib/libnds9.a(memset.s.o)
                0x020087a8                __ndsabi_memset1
 .text.memset   0x020087b8       0x1c /opt/blocksds/core/libs/libnds/lib/libnds9.a(memset.s.o)
                0x020087b8                memset
 .text.__aeabi_memcpy
                0x020087d4       0xc8 /opt/blocksds/core/libs/libnds/lib/libnds9.a(memcpy.s.o)
                0x020087d4                __aeabi_memcpy
                0x0200880c                __aeabi_memcpy4
                0x0200880c                __aeabi_memcpy8
                0x02008878                __ndsabi_memcpy2
 .text.__ndsabi_memcpy1
                0x0200889c       0x14 /opt/blocksds/core/libs/libnds/lib/libnds9.a(memcpy.s.o)
                0x0200889c                __ndsabi_memcpy1
 .text.memcpy   0x020088b0       0x10 /opt/blocksds/core/libs/libnds/lib/libnds9.a(memcpy.s.o)
                0x020088b0                memcpy
 .text.newRow   0x020088c0       0x88 /opt/blocksds/core/libs/libnds/lib/libnds9.a(console.c.o)
 .text.consolePrintChar.part.0
                0x02008948      0x100 /opt/blocksds/core/libs/libnds/lib/libnds9.a(console.c.o)
 .text.consolePrintChar
                0x02008a48       0x2c /opt/blocksds/core/libs/libnds/lib/libnds9.a(console.c.o)
                0x02008a48                consolePrintChar
 .text.con_write
                0x02008a74      0x33c /opt/blocksds/core/libs/libnds/lib/libnds9.a(console.c.o)
 .text.consoleLoadFont
                0x02008db0      0x268 /opt/blocksds/core/libs/libnds/lib/libnds9.a(console.c.o)
                0x02008db0                consoleLoadFont
 .text.consoleInitEx
                0x02009018      0x1b8 /opt/blocksds/core/libs/libnds/lib/libnds9.a(console.c.o)
                0x02009018                consoleInitEx
 .text.consoleDemoInit
                0x020091d0       0x48 /opt/blocksds/core/libs/libnds/lib/libnds9.a(console.c.o)
                0x020091d0                consoleDemoInit
 .text.consoleSetCursor
                0x02009218       0x24 /opt/blocksds/core/libs/libnds/lib/libnds9.a(console.c.o)
                0x02009218                consoleSetCursor
 .text.consoleArm7Flush
                0x0200923c       0x98 /opt/blocksds/core/libs/libnds/lib/libnds9.a(console.c.o)
                0x0200923c                consoleArm7Flush
 .text.checkIfText
                0x020092d4       0x6c /opt/blocksds/core/libs/libnds/lib/libnds9.a(background.c.o)
                0x020092d4                checkIfText
 .text.bgUpdate
                0x02009340       0xf4 /opt/blocksds/core/libs/libnds/lib/libnds9.a(background.c.o)
                0x02009340                bgUpdate
 .text.bgInit_call
                0x02009434       0xb0 /opt/blocksds/core/libs/libnds/lib/libnds9.a(background.c.o)
                0x02009434                bgInit_call
 .text.bgInitSub_call
                0x020094e4       0xb8 /opt/blocksds/core/libs/libnds/lib/libnds9.a(background.c.o)
                0x020094e4                bgInitSub_call
 .text.oamInit  0x0200959c      0x100 /opt/blocksds/core/libs/libnds/lib/libnds9.a(sprite.c.o)
                0x0200959c                oamInit
 .text.oamGfxPtrToOffset
                0x0200969c       0x34 /opt/blocksds/core/libs/libnds/lib/libnds9.a(sprite.c.o)
                0x0200969c                oamGfxPtrToOffset
 .text.oamSet   0x020096d0      0x114 /opt/blocksds/core/libs/libnds/lib/libnds9.a(sprite.c.o)
                0x020096d0                oamSet
 .text.oamUpdate
                0x020097e4       0x50 /opt/blocksds/core/libs/libnds/lib/libnds9.a(sprite.c.o)
                0x020097e4                oamUpdate
 .text.setBrightness
                0x02009834       0x40 /opt/blocksds/core/libs/libnds/lib/libnds9.a(video.c.o)
                0x02009834                setBrightness
 .text.vramDefault
                0x02009874       0xe4 /opt/blocksds/core/libs/libnds/lib/libnds9.a(video.c.o)
                0x02009874                vramDefault
 .text.initSystem
                0x02009958      0x184 /opt/blocksds/core/libs/libnds/lib/libnds9.a(initSystem.c.o)
                0x02009958                initSystem
 .text.scanKeys
                0x02009adc       0xc0 /opt/blocksds/core/libs/libnds/lib/libnds9.a(keys.c.o)
                0x02009adc                scanKeys
 .text.keysHeld
                0x02009b9c        0xc /opt/blocksds/core/libs/libnds/lib/libnds9.a(keys.c.o)
                0x02009b9c                keysHeld
 .text.keysCurrent
                0x02009ba8       0x48 /opt/blocksds/core/libs/libnds/lib/libnds9.a(keys.c.o)
                0x02009ba8                keysCurrent
 .text.touchRead
                0x02009bf0       0x24 /opt/blocksds/core/libs/libnds/lib/libnds9.a(keys.c.o)
                0x02009bf0                touchRead
 .text.setTransferInputData
                0x02009c14       0x20 /opt/blocksds/core/libs/libnds/lib/libnds9.a(keys.c.o)
                0x02009c14                setTransferInputData
 .text.systemValueHandler
                0x02009c34       0x8c /opt/blocksds/core/libs/libnds/lib/libnds9.a(system.c.o)
                0x02009c34                systemValueHandler
 .text.systemMsgHandler
                0x02009cc0       0x2c /opt/blocksds/core/libs/libnds/lib/libnds9.a(system.c.o)
                0x02009cc0                systemMsgHandler
 .text.powerOn  0x02009cec       0x2c /opt/blocksds/core/libs/libnds/lib/libnds9.a(system.c.o)
                0x02009cec                powerOn
 .text.releaseCrashHandler
                0x02009d18       0x78 /opt/blocksds/core/libs/libnds/lib/libnds9.a(exceptions.c.o)
 .text.exceptionStatePrint
                0x02009d90       0xec /opt/blocksds/core/libs/libnds/lib/libnds9.a(exceptions.c.o)
                0x02009d90                exceptionStatePrint
 .text.releaseExceptionHandler
                0x02009e7c       0x10 /opt/blocksds/core/libs/libnds/lib/libnds9.a(exceptions.c.o)
                0x02009e7c                releaseExceptionHandler
 .text.chdir    0x02009e8c      0x110 /opt/blocksds/core/libs/libnds/lib/libnds9.a(chdir.c.o)
                0x02009e8c                chdir
 .text.nitrofs_read_internal
                0x02009f9c       0xf8 /opt/blocksds/core/libs/libnds/lib/libnds9.a(nitrofs.c.o)
 .text.nitrofs_dir_state_init
                0x0200a094       0xa8 /opt/blocksds/core/libs/libnds/lib/libnds9.a(nitrofs.c.o)
 .text.nitrofs_dir_state_next
                0x0200a13c       0xc0 /opt/blocksds/core/libs/libnds/lib/libnds9.a(nitrofs.c.o)
 .text.nitrofs_dir_step
                0x0200a1fc      0x100 /opt/blocksds/core/libs/libnds/lib/libnds9.a(nitrofs.c.o)
 .text.nitrofs_use_for_path
                0x0200a2fc       0x30 /opt/blocksds/core/libs/libnds/lib/libnds9.a(nitrofs.c.o)
                0x0200a2fc                nitrofs_use_for_path
 .text.nitrofs_path_resolve
                0x0200a32c       0x68 /opt/blocksds/core/libs/libnds/lib/libnds9.a(nitrofs.c.o)
                0x0200a32c                nitrofs_path_resolve
 .text.nitrofs_chdir
                0x0200a394       0x24 /opt/blocksds/core/libs/libnds/lib/libnds9.a(nitrofs.c.o)
                0x0200a394                nitrofs_chdir
 .text.nitrofs_read
                0x0200a3b8       0x30 /opt/blocksds/core/libs/libnds/lib/libnds9.a(nitrofs.c.o)
                0x0200a3b8                nitrofs_read
 .text.nitrofs_lseek
                0x0200a3e8       0x54 /opt/blocksds/core/libs/libnds/lib/libnds9.a(nitrofs.c.o)
                0x0200a3e8                nitrofs_lseek
 .text.nitrofs_close
                0x0200a43c       0x10 /opt/blocksds/core/libs/libnds/lib/libnds9.a(nitrofs.c.o)
                0x0200a43c                nitrofs_close
 .text.nitroFSOpenById
                0x0200a44c       0x6c /opt/blocksds/core/libs/libnds/lib/libnds9.a(nitrofs.c.o)
                0x0200a44c                nitroFSOpenById
 .text.nitrofs_open
                0x0200a4b8       0x4c /opt/blocksds/core/libs/libnds/lib/libnds9.a(nitrofs.c.o)
                0x0200a4b8                nitrofs_open
 .text.nitroFSInit
                0x0200a504      0x1b8 /opt/blocksds/core/libs/libnds/lib/libnds9.a(nitrofs.c.o)
                0x0200a504                nitroFSInit
 .text.putc_buffered
                0x0200a6bc       0x98 /opt/blocksds/core/libs/libnds/lib/libnds9.a(iob.c.o)
 .text.stderr_putc_buffered
                0x0200a754       0x20 /opt/blocksds/core/libs/libnds/lib/libnds9.a(iob.c.o)
 .text.stdin_getc_keyboard
                0x0200a774       0xec /opt/blocksds/core/libs/libnds/lib/libnds9.a(iob.c.o)
 .text.stdout_putc_buffered
                0x0200a860       0x40 /opt/blocksds/core/libs/libnds/lib/libnds9.a(iob.c.o)
 .text.fatfs_error_to_posix
                0x0200a8a0       0x24 /opt/blocksds/core/libs/libnds/lib/libnds9.a(fatfs.c.o)
                0x0200a8a0                fatfs_error_to_posix
 .text.fatfs_timestamp_to_fattime
                0x0200a8c4       0x2c /opt/blocksds/core/libs/libnds/lib/libnds9.a(fatfs.c.o)
                0x0200a8c4                fatfs_timestamp_to_fattime
 .text.get_dirname
                0x0200a8f0       0x98 /opt/blocksds/core/libs/libnds/lib/libnds9.a(fatfs.c.o)
                0x0200a8f0                get_dirname
 .text.fatGetDefaultCwd
                0x0200a988       0x70 /opt/blocksds/core/libs/libnds/lib/libnds9.a(fatfs.c.o)
                0x0200a988                fatGetDefaultCwd
 .text.fatInit.part.0
                0x0200a9f8      0x108 /opt/blocksds/core/libs/libnds/lib/libnds9.a(fatfs.c.o)
 .text.fatInitDefault
                0x0200ab00       0x24 /opt/blocksds/core/libs/libnds/lib/libnds9.a(fatfs.c.o)
                0x0200ab00                fatInitDefault
 .text.fatInitLookupCache
                0x0200ab24       0x5c /opt/blocksds/core/libs/libnds/lib/libnds9.a(fatfs.c.o)
                0x0200ab24                fatInitLookupCache
 .text.build_argv
                0x0200ab80       0x58 /opt/blocksds/core/libs/libnds/lib/libnds9.a(crt0_argv.c.o)
                0x0200ab80                build_argv
 .text.open     0x0200abd8       0xf0 /opt/blocksds/core/libs/libnds/lib/libnds9.a(filesystem.c.o)
                0x0200abd8                open
 .text.read     0x0200acc8       0x44 /opt/blocksds/core/libs/libnds/lib/libnds9.a(filesystem.c.o)
                0x0200acc8                read
 .text.write    0x0200ad0c       0x54 /opt/blocksds/core/libs/libnds/lib/libnds9.a(filesystem.c.o)
                0x0200ad0c                write
 .text.close    0x0200ad60       0x50 /opt/blocksds/core/libs/libnds/lib/libnds9.a(filesystem.c.o)
                0x0200ad60                close
 .text.lseek    0x0200adb0       0x70 /opt/blocksds/core/libs/libnds/lib/libnds9.a(filesystem.c.o)
                0x0200adb0                lseek
 .text.access   0x0200ae20       0x80 /opt/blocksds/core/libs/libnds/lib/libnds9.a(filesystem.c.o)
                0x0200ae20                access
 .text.cache_initialized
                0x0200aea0       0x10 /opt/blocksds/core/libs/libnds/lib/libnds9.a(cache.c.o)
                0x0200aea0                cache_initialized
 .text.cache_init
                0x0200aeb0       0x9c /opt/blocksds/core/libs/libnds/lib/libnds9.a(cache.c.o)
                0x0200aeb0                cache_init
 .text.cache_sector_get
                0x0200af4c       0x70 /opt/blocksds/core/libs/libnds/lib/libnds9.a(cache.c.o)
                0x0200af4c                cache_sector_get
 .text.cache_sector_add
                0x0200afbc       0xbc /opt/blocksds/core/libs/libnds/lib/libnds9.a(cache.c.o)
                0x0200afbc                cache_sector_add
 .text.cache_sector_invalidate
                0x0200b078       0x44 /opt/blocksds/core/libs/libnds/lib/libnds9.a(cache.c.o)
                0x0200b078                cache_sector_invalidate
 .text.cothread_delete_internal
                0x0200b0bc       0x3c /opt/blocksds/core/libs/libnds/lib/libnds9.a(threads.c.o)
 .text.cothread_main
                0x0200b0f8       0x10 /opt/blocksds/core/libs/libnds/lib/libnds9.a(threads.c.o)
                0x0200b0f8                cothread_main
 .text.init_tls
                0x0200b108       0x28 /opt/blocksds/core/libs/libnds/lib/libnds9.a(threads.c.o)
                0x0200b108                init_tls
 .text.cothread_yield
                0x0200b130       0x14 /opt/blocksds/core/libs/libnds/lib/libnds9.a(threads.c.o)
                0x0200b130                cothread_yield
 .text.cothread_yield_irq
                0x0200b144       0x18 /opt/blocksds/core/libs/libnds/lib/libnds9.a(threads.c.o)
                0x0200b144                cothread_yield_irq
 .text.cothread_start
                0x0200b15c      0x108 /opt/blocksds/core/libs/libnds/lib/libnds9.a(threads.c.o)
                0x0200b15c                cothread_start
 .text.irqDummy
                0x0200b264        0x4 /opt/blocksds/core/libs/libnds/lib/libnds9.a(interrupts.c.o)
                0x0200b264                irqDummy
 .text.irqSet   0x0200b268       0x9c /opt/blocksds/core/libs/libnds/lib/libnds9.a(interrupts.c.o)
                0x0200b268                irqSet
 .text.irqInit  0x0200b304       0x4c /opt/blocksds/core/libs/libnds/lib/libnds9.a(interrupts.c.o)
                0x0200b304                irqInit
 .text.irqEnable
                0x0200b350       0x64 /opt/blocksds/core/libs/libnds/lib/libnds9.a(interrupts.c.o)
                0x0200b350                irqEnable
 .text.setExceptionHandler
                0x0200b3b4       0x18 /opt/blocksds/core/libs/libnds/lib/libnds9.a(exceptions.c.o)
                0x0200b3b4                setExceptionHandler
 .text.libndsCrash
                0x0200b3cc        0xc /opt/blocksds/core/libs/libnds/lib/libnds9.a(exceptions.c.o)
                0x0200b3cc                libndsCrash
 .text.__ndsabi_coro_make_noctx
                0x0200b3d8       0x24 /opt/blocksds/core/libs/libnds/lib/libnds9.a(coroutine.c.o)
                0x0200b3d8                __ndsabi_coro_make_noctx
 .text.cardPolledTransfer
                0x0200b3fc       0x54 /opt/blocksds/core/libs/libnds/lib/libnds9.a(card.c.o)
                0x0200b3fc                cardPolledTransfer
 .text.cardRead
                0x0200b450      0x19c /opt/blocksds/core/libs/libnds/lib/libnds9.a(card.c.o)
                0x0200b450                cardRead
 .text.systemErrorExit
                0x0200b5ec        0x4 /opt/blocksds/core/libs/libnds/lib/libnds9.a(exit.c.o)
                0x0200b5ec                systemErrorExit
 .text.__libnds_exit
                0x0200b5f0        0x8 /opt/blocksds/core/libs/libnds/lib/libnds9.a(exit.c.o)
                0x0200b5f0                __libnds_exit
 .text._exit    0x0200b5f8       0x78 /opt/blocksds/core/libs/libnds/lib/libnds9.a(exit.c.o)
                0x0200b5f8                _exit
 .text.__retarget_lock_acquire_recursive
                0x0200b670       0x40 /opt/blocksds/core/libs/libnds/lib/libnds9.a(locks.c.o)
                0x0200b670                __retarget_lock_acquire_recursive
 .text.__retarget_lock_release_recursive
                0x0200b6b0       0x4c /opt/blocksds/core/libs/libnds/lib/libnds9.a(locks.c.o)
                0x0200b6b0                __retarget_lock_release_recursive
 .text.__retarget_lock_init
                0x0200b6fc       0x40 /opt/blocksds/core/libs/libnds/lib/libnds9.a(locks.c.o)
                0x0200b6fc                __retarget_lock_init
 .text.__retarget_lock_close
                0x0200b73c       0x30 /opt/blocksds/core/libs/libnds/lib/libnds9.a(locks.c.o)
                0x0200b73c                __retarget_lock_close
 .text.__retarget_lock_acquire
                0x0200b76c        0x8 /opt/blocksds/core/libs/libnds/lib/libnds9.a(locks.c.o)
                0x0200b76c                __retarget_lock_acquire
 .text.__retarget_lock_release
                0x0200b774       0x4c /opt/blocksds/core/libs/libnds/lib/libnds9.a(locks.c.o)
                0x0200b774                __retarget_lock_release
 .text.sbrk     0x0200b7c0       0x5c /opt/blocksds/core/libs/libnds/lib/libnds9.a(sbrk.c.o)
                0x0200b7c0                sbrk
 .text.fifo_buffer_enqueue_block
                0x0200b81c       0x3c /opt/blocksds/core/libs/libnds/lib/libnds9.a(fifosystem.c.o)
 .text.fifo_buffer_wait_block
                0x0200b858       0x7c /opt/blocksds/core/libs/libnds/lib/libnds9.a(fifosystem.c.o)
 .text.fifoInternalSend.part.0
                0x0200b8d4       0xc4 /opt/blocksds/core/libs/libnds/lib/libnds9.a(fifosystem.c.o)
 .text.fifoInternalSendInterrupt
                0x0200b998       0xb0 /opt/blocksds/core/libs/libnds/lib/libnds9.a(fifosystem.c.o)
 .text.fifoSetValue32Handler
                0x0200ba48       0xd4 /opt/blocksds/core/libs/libnds/lib/libnds9.a(fifosystem.c.o)
                0x0200ba48                fifoSetValue32Handler
 .text.fifoSendValue32
                0x0200bb1c       0x54 /opt/blocksds/core/libs/libnds/lib/libnds9.a(fifosystem.c.o)
                0x0200bb1c                fifoSendValue32
 .text.fifoSendDatamsg
                0x0200bb70       0x98 /opt/blocksds/core/libs/libnds/lib/libnds9.a(fifosystem.c.o)
                0x0200bb70                fifoSendDatamsg
 .text.fifoGetValue32
                0x0200bc08       0x70 /opt/blocksds/core/libs/libnds/lib/libnds9.a(fifosystem.c.o)
                0x0200bc08                fifoGetValue32
 .text.fifoGetDatamsg
                0x0200bc78       0xe8 /opt/blocksds/core/libs/libnds/lib/libnds9.a(fifosystem.c.o)
                0x0200bc78                fifoGetDatamsg
 .text.fifoInternalRecvInterrupt
                0x0200bd60      0x30c /opt/blocksds/core/libs/libnds/lib/libnds9.a(fifosystem.c.o)
 .text.fifoSetDatamsgHandler
                0x0200c06c       0x9c /opt/blocksds/core/libs/libnds/lib/libnds9.a(fifosystem.c.o)
                0x0200c06c                fifoSetDatamsgHandler
 .text.fifoCheckValue32
                0x0200c108       0x24 /opt/blocksds/core/libs/libnds/lib/libnds9.a(fifosystem.c.o)
                0x0200c108                fifoCheckValue32
 .text.fifoInit
                0x0200c12c      0x114 /opt/blocksds/core/libs/libnds/lib/libnds9.a(fifosystem.c.o)
                0x0200c12c                fifoInit
 .text.fifoMutexAcquire
                0x0200c240       0x30 /opt/blocksds/core/libs/libnds/lib/libnds9.a(fifosystem.c.o)
                0x0200c240                fifoMutexAcquire
 .text.fifoMutexRelease
                0x0200c270       0x14 /opt/blocksds/core/libs/libnds/lib/libnds9.a(fifosystem.c.o)
                0x0200c270                fifoMutexRelease
 .text.get_ldnumber
                0x0200c284       0xdc /opt/blocksds/core/libs/libnds/lib/libnds9.a(ff.c.o)
 .text.put_utf  0x0200c360       0xf4 /opt/blocksds/core/libs/libnds/lib/libnds9.a(ff.c.o)
 .text.get_fileinfo
                0x0200c454      0x190 /opt/blocksds/core/libs/libnds/lib/libnds9.a(ff.c.o)
 .text.dir_clear
                0x0200c5e4      0x10c /opt/blocksds/core/libs/libnds/lib/libnds9.a(ff.c.o)
 .text.unlock_volume.part.0.isra.0
                0x0200c6f0        0x8 /opt/blocksds/core/libs/libnds/lib/libnds9.a(ff.c.o)
 .text.sync_fs  0x0200c6f8       0xb4 /opt/blocksds/core/libs/libnds/lib/libnds9.a(ff.c.o)
 .text.move_window
                0x0200c7ac       0x6c /opt/blocksds/core/libs/libnds/lib/libnds9.a(ff.c.o)
 .text.put_fat.part.0
                0x0200c818      0x118 /opt/blocksds/core/libs/libnds/lib/libnds9.a(ff.c.o)
 .text.get_fat.isra.0
                0x0200c930       0xbc /opt/blocksds/core/libs/libnds/lib/libnds9.a(ff.c.o)
 .text.remove_chain
                0x0200c9ec       0x90 /opt/blocksds/core/libs/libnds/lib/libnds9.a(ff.c.o)
 .text.create_chain
                0x0200ca7c      0x124 /opt/blocksds/core/libs/libnds/lib/libnds9.a(ff.c.o)
 .text.dir_next
                0x0200cba0       0xd4 /opt/blocksds/core/libs/libnds/lib/libnds9.a(ff.c.o)
 .text.dir_sdi  0x0200cc74       0x9c /opt/blocksds/core/libs/libnds/lib/libnds9.a(ff.c.o)
 .text.dir_find
                0x0200cd10      0x1e8 /opt/blocksds/core/libs/libnds/lib/libnds9.a(ff.c.o)
 .text.follow_path
                0x0200cef8      0x4f4 /opt/blocksds/core/libs/libnds/lib/libnds9.a(ff.c.o)
 .text.dir_register
                0x0200d3ec      0x31c /opt/blocksds/core/libs/libnds/lib/libnds9.a(ff.c.o)
 .text.validate
                0x0200d708       0x58 /opt/blocksds/core/libs/libnds/lib/libnds9.a(ff.c.o)
 .text.check_fs
                0x0200d760      0x154 /opt/blocksds/core/libs/libnds/lib/libnds9.a(ff.c.o)
 .text.mount_volume
                0x0200d8b4      0x34c /opt/blocksds/core/libs/libnds/lib/libnds9.a(ff.c.o)
 .text.f_mount  0x0200dc00       0xa0 /opt/blocksds/core/libs/libnds/lib/libnds9.a(ff.c.o)
                0x0200dc00                f_mount
 .text.f_open   0x0200dca0      0x2cc /opt/blocksds/core/libs/libnds/lib/libnds9.a(ff.c.o)
                0x0200dca0                f_open
 .text.f_read   0x0200df6c      0x2c0 /opt/blocksds/core/libs/libnds/lib/libnds9.a(ff.c.o)
                0x0200df6c                f_read
 .text.f_write  0x0200e22c      0x300 /opt/blocksds/core/libs/libnds/lib/libnds9.a(ff.c.o)
                0x0200e22c                f_write
 .text.f_sync   0x0200e52c       0xe0 /opt/blocksds/core/libs/libnds/lib/libnds9.a(ff.c.o)
                0x0200e52c                f_sync
 .text.f_close  0x0200e60c       0x30 /opt/blocksds/core/libs/libnds/lib/libnds9.a(ff.c.o)
                0x0200e60c                f_close
 .text.f_chdrive
                0x0200e63c       0x24 /opt/blocksds/core/libs/libnds/lib/libnds9.a(ff.c.o)
                0x0200e63c                f_chdrive
 .text.f_chdir  0x0200e660       0xb4 /opt/blocksds/core/libs/libnds/lib/libnds9.a(ff.c.o)
                0x0200e660                f_chdir
 .text.f_lseek  0x0200e714      0x348 /opt/blocksds/core/libs/libnds/lib/libnds9.a(ff.c.o)
                0x0200e714                f_lseek
 .text.f_stat   0x0200ea5c       0xec /opt/blocksds/core/libs/libnds/lib/libnds9.a(ff.c.o)
                0x0200ea5c                f_stat
 .text.ff_uni2oem
                0x0200eb48       0x44 /opt/blocksds/core/libs/libnds/lib/libnds9.a(ffunicode.c.o)
                0x0200eb48                ff_uni2oem
 .text.ff_oem2uni
                0x0200eb8c       0x2c /opt/blocksds/core/libs/libnds/lib/libnds9.a(ffunicode.c.o)
                0x0200eb8c                ff_oem2uni
 .text.ff_wtoupper
                0x0200ebb8       0xcc /opt/blocksds/core/libs/libnds/lib/libnds9.a(ffunicode.c.o)
                0x0200ebb8                ff_wtoupper
 .text.__aeabi_read_tp
                0x0200ec84        0xc /opt/blocksds/core/libs/libnds/lib/libnds9.a(aeabi_read_tp.s.o)
                0x0200ec84                __aeabi_read_tp
 .text.getCPSR  0x0200ec90        0x8 /opt/blocksds/core/libs/libnds/lib/libnds9.a(cpu.s.o)
                0x0200ec90                getCPSR
 .text.enterException
                0x0200ec98       0xd4 /opt/blocksds/core/libs/libnds/lib/libnds9.a(exceptionHandler.s.o)
                0x0200ec98                enterException
                0x0200ed0c                exceptionC
                0x0200ed10                exceptionStack
                0x0200ed14                exceptionRegisters
 .text.__ndsabi_coro_resume
                0x0200ed6c       0x18 /opt/blocksds/core/libs/libnds/lib/libnds9.a(coroutine.s.o)
                0x0200ed6c                __ndsabi_coro_resume
 .text.__ndsabi_coro_yield
                0x0200ed84       0x1c /opt/blocksds/core/libs/libnds/lib/libnds9.a(coroutine.s.o)
                0x0200ed84                __ndsabi_coro_yield
 .text.__ndsabi_coro_pop_noctx
                0x0200eda0       0x34 /opt/blocksds/core/libs/libnds/lib/libnds9.a(coroutine.s.o)
                0x0200eda0                __ndsabi_coro_pop_noctx
 .text.cardReadArm7
                0x0200edd4       0x80 /opt/blocksds/core/libs/libnds/lib/libnds9.a(card.c.o)
                0x0200edd4                cardReadArm7
 .text.dldi_arm7_read_sectors
                0x0200ee54       0x70 /opt/blocksds/core/libs/libnds/lib/libnds9.a(dldi.c.o)
 .text.dldi_arm7_shutdown
                0x0200eec4       0x3c /opt/blocksds/core/libs/libnds/lib/libnds9.a(dldi.c.o)
 .text.dldi_arm7_clear_status
                0x0200ef00       0x3c /opt/blocksds/core/libs/libnds/lib/libnds9.a(dldi.c.o)
 .text.dldi_arm7_is_inserted
                0x0200ef3c       0x3c /opt/blocksds/core/libs/libnds/lib/libnds9.a(dldi.c.o)
 .text.dldi_arm7_startup
                0x0200ef78       0x50 /opt/blocksds/core/libs/libnds/lib/libnds9.a(dldi.c.o)
 .text.dldi_arm7_write_sectors
                0x0200efc8       0x70 /opt/blocksds/core/libs/libnds/lib/libnds9.a(dldi.c.o)
 .text.dldiGetMode
                0x0200f038        0xc /opt/blocksds/core/libs/libnds/lib/libnds9.a(dldi.c.o)
                0x0200f038                dldiGetMode
 .text.dldiGetInternal
                0x0200f044       0xac /opt/blocksds/core/libs/libnds/lib/libnds9.a(dldi.c.o)
                0x0200f044                dldiGetInternal
 .text.dldiGetStubDataEnd
                0x0200f0f0       0x1c /opt/blocksds/core/libs/libnds/lib/libnds9.a(dldi.c.o)
                0x0200f0f0                dldiGetStubDataEnd
 .text.dldiGetStubEnd
                0x0200f10c        0x8 /opt/blocksds/core/libs/libnds/lib/libnds9.a(dldi.c.o)
                0x0200f10c                dldiGetStubEnd
 .text.keyboardShiftState.part.0
                0x0200f114       0x7c /opt/blocksds/core/libs/libnds/lib/libnds9.a(keyboard.c.o)
 .text.swapKeyGfx.part.0
                0x0200f190      0x164 /opt/blocksds/core/libs/libnds/lib/libnds9.a(keyboard.c.o)
 .text.keyboardGetKey
                0x0200f2f4       0x64 /opt/blocksds/core/libs/libnds/lib/libnds9.a(keyboard.c.o)
                0x0200f2f4                keyboardGetKey
 .text.keyboardUpdate
                0x0200f358      0x120 /opt/blocksds/core/libs/libnds/lib/libnds9.a(keyboard.c.o)
                0x0200f358                keyboardUpdate
 .text.keyboardShow
                0x0200f478      0x144 /opt/blocksds/core/libs/libnds/lib/libnds9.a(keyboard.c.o)
                0x0200f478                keyboardShow
 .text.keyboardHide
                0x0200f5bc       0x90 /opt/blocksds/core/libs/libnds/lib/libnds9.a(keyboard.c.o)
                0x0200f5bc                keyboardHide
 .text.sinLutLookup
                0x0200f64c       0x4c /opt/blocksds/core/libs/libnds/lib/libnds9.a(trig.c.o)
                0x0200f64c                sinLutLookup
 .text.sinLerp  0x0200f698       0x38 /opt/blocksds/core/libs/libnds/lib/libnds9.a(trig.c.o)
                0x0200f698                sinLerp
 .text.cosLerp  0x0200f6d0       0x48 /opt/blocksds/core/libs/libnds/lib/libnds9.a(trig.c.o)
                0x0200f6d0                cosLerp
 .text.oamAllocReset
                0x0200f718       0x1c /opt/blocksds/core/libs/libnds/lib/libnds9.a(sprite_alloc.c.o)
                0x0200f718                oamAllocReset
 .text.ff_mutex_create
                0x0200f734       0x10 /opt/blocksds/core/libs/libnds/lib/libnds9.a(ffsystem.c.o)
                0x0200f734                ff_mutex_create
 .text.ff_mutex_delete
                0x0200f744        0x4 /opt/blocksds/core/libs/libnds/lib/libnds9.a(ffsystem.c.o)
                0x0200f744                ff_mutex_delete
 .text.ff_mutex_take
                0x0200f748       0x1c /opt/blocksds/core/libs/libnds/lib/libnds9.a(ffsystem.c.o)
                0x0200f748                ff_mutex_take
 .text.ff_mutex_give
                0x0200f764       0x10 /opt/blocksds/core/libs/libnds/lib/libnds9.a(ffsystem.c.o)
                0x0200f764                ff_mutex_give
 .text.disk_status
                0x0200f774       0x28 /opt/blocksds/core/libs/libnds/lib/libnds9.a(diskio.c.o)
                0x0200f774                disk_status
 .text.disk_initialize
                0x0200f79c       0x50 /opt/blocksds/core/libs/libnds/lib/libnds9.a(diskio.c.o)
                0x0200f79c                disk_initialize
 .text.disk_read
                0x0200f7ec      0x130 /opt/blocksds/core/libs/libnds/lib/libnds9.a(diskio.c.o)
                0x0200f7ec                disk_read
 .text.disk_write
                0x0200f91c       0xc8 /opt/blocksds/core/libs/libnds/lib/libnds9.a(diskio.c.o)
                0x0200f91c                disk_write
 .text.disk_ioctl
                0x0200f9e4       0x2c /opt/blocksds/core/libs/libnds/lib/libnds9.a(diskio.c.o)
                0x0200f9e4                disk_ioctl
 .text.get_fattime
                0x0200fa10       0x1c /opt/blocksds/core/libs/libnds/lib/libnds9.a(diskio.c.o)
                0x0200fa10                get_fattime
 .text.calloc   0x0200fa2c       0xb4 /opt/wonderful/toolchain/gcc-arm-none-eabi/lib/gcc/arm-none-eabi/14.2.0/../../../../arm-none-eabi/lib/thumb/arm946e-s/libc.a(malloc-calloc.c.o)
                0x0200fa2c                calloc
 .text.malloc_trim
                0x0200fae0       0x9c /opt/wonderful/toolchain/gcc-arm-none-eabi/lib/gcc/arm-none-eabi/14.2.0/../../../../arm-none-eabi/lib/thumb/arm946e-s/libc.a(malloc-free.c.o)
                0x0200fae0                malloc_trim
 .text.free     0x0200fb7c      0x164 /opt/wonderful/toolchain/gcc-arm-none-eabi/lib/gcc/arm-none-eabi/14.2.0/../../../../arm-none-eabi/lib/thumb/arm946e-s/libc.a(malloc-free.c.o)
                0x0200fb7c                __malloc_free
                0x0200fb7c                free
 .text.malloc   0x0200fce0      0x434 /opt/wonderful/toolchain/gcc-arm-none-eabi/lib/gcc/arm-none-eabi/14.2.0/../../../../arm-none-eabi/lib/thumb/arm946e-s/libc.a(malloc-malloc.c.o)
                0x0200fce0                malloc
 .text.realloc  0x02010114      0x364 /opt/wonderful/toolchain/gcc-arm-none-eabi/lib/gcc/arm-none-eabi/14.2.0/../../../../arm-none-eabi/lib/thumb/arm946e-s/libc.a(malloc-realloc.c.o)
                0x02010114                realloc
 .text.__libc_init_array
                0x02010478       0x54 /opt/wonderful/toolchain/gcc-arm-none-eabi/lib/gcc/arm-none-eabi/14.2.0/../../../../arm-none-eabi/lib/thumb/arm946e-s/libc.a(libc_misc_init.c.o)
                0x02010478                __libc_init_array
 .text.exit     0x020104cc       0x20 /opt/wonderful/toolchain/gcc-arm-none-eabi/lib/gcc/arm-none-eabi/14.2.0/../../../../arm-none-eabi/lib/thumb/arm946e-s/libc.a(libc_stdlib_pico-exit.c.o)
                0x020104cc                exit
 .text.memcmp   0x020104ec       0x1c /opt/wonderful/toolchain/gcc-arm-none-eabi/lib/gcc/arm-none-eabi/14.2.0/../../../../arm-none-eabi/lib/thumb/arm946e-s/libc.a(libc_string_memcmp.c.o)
                0x020104ec                memcmp
 .text.strchr   0x02010508       0x1e /opt/wonderful/toolchain/gcc-arm-none-eabi/lib/gcc/arm-none-eabi/14.2.0/../../../../arm-none-eabi/lib/thumb/arm946e-s/libc.a(libc_string_strchr.c.o)
                0x02010508                strchr
 .text.strdup   0x02010526       0x20 /opt/wonderful/toolchain/gcc-arm-none-eabi/lib/gcc/arm-none-eabi/14.2.0/../../../../arm-none-eabi/lib/thumb/arm946e-s/libc.a(libc_string_strdup.c.o)
                0x02010526                strdup
 .text.strncmp  0x02010546       0x22 /opt/wonderful/toolchain/gcc-arm-none-eabi/lib/gcc/arm-none-eabi/14.2.0/../../../../arm-none-eabi/lib/thumb/arm946e-s/libc.a(libc_string_strncmp.c.o)
                0x02010546                strncmp
 .text.strstr   0x02010568       0x2c /opt/wonderful/toolchain/gcc-arm-none-eabi/lib/gcc/arm-none-eabi/14.2.0/../../../../arm-none-eabi/lib/thumb/arm946e-s/libc.a(libc_string_strstr.c.o)
                0x02010568                strstr
 .text.localtime
                0x02010594       0x18 /opt/wonderful/toolchain/gcc-arm-none-eabi/lib/gcc/arm-none-eabi/14.2.0/../../../../arm-none-eabi/lib/thumb/arm946e-s/libc.a(libc_time_lcltime.c.o)
                0x02010594                localtime
 .text.localtime_r
                0x020105ac      0x1f8 /opt/wonderful/toolchain/gcc-arm-none-eabi/lib/gcc/arm-none-eabi/14.2.0/../../../../arm-none-eabi/lib/thumb/arm946e-s/libc.a(libc_time_lcltime_r.c.o)
                0x020105ac                localtime_r
 .text.time     0x020107a4       0x2a /opt/wonderful/toolchain/gcc-arm-none-eabi/lib/gcc/arm-none-eabi/14.2.0/../../../../arm-none-eabi/lib/thumb/arm946e-s/libc.a(libc_time_time.c.o)
                0x020107a4                time
 *fill*         0x020107ce        0x2 ff
 .text.__tzcalc_limits
                0x020107d0      0x17c /opt/wonderful/toolchain/gcc-arm-none-eabi/lib/gcc/arm-none-eabi/14.2.0/../../../../arm-none-eabi/lib/thumb/arm946e-s/libc.a(libc_time_tzcalc_limits.c.o)
                0x020107d0                __tzcalc_limits
 .text._tzset_unlocked
                0x0201094c      0x3a0 /opt/wonderful/toolchain/gcc-arm-none-eabi/lib/gcc/arm-none-eabi/14.2.0/../../../../arm-none-eabi/lib/thumb/arm946e-s/libc.a(libc_time_tzset.c.o)
                0x0201094c                _tzset_unlocked
 .text.fclose   0x02010cec       0x18 /opt/wonderful/toolchain/gcc-arm-none-eabi/lib/gcc/arm-none-eabi/14.2.0/../../../../arm-none-eabi/lib/thumb/arm946e-s/libc.a(libc_tinystdio_fclose.c.o)
                0x02010cec                fclose
 .text.fflush   0x02010d04       0x12 /opt/wonderful/toolchain/gcc-arm-none-eabi/lib/gcc/arm-none-eabi/14.2.0/../../../../arm-none-eabi/lib/thumb/arm946e-s/libc.a(libc_tinystdio_fflush.c.o)
                0x02010d04                fflush
 .text.fileno   0x02010d16       0x10 /opt/wonderful/toolchain/gcc-arm-none-eabi/lib/gcc/arm-none-eabi/14.2.0/../../../../arm-none-eabi/lib/thumb/arm946e-s/libc.a(libc_tinystdio_fileno.c.o)
                0x02010d16                fileno
 *fill*         0x02010d26        0x2 ff
 .text.fread    0x02010d28      0x1a0 /opt/wonderful/toolchain/gcc-arm-none-eabi/lib/gcc/arm-none-eabi/14.2.0/../../../../arm-none-eabi/lib/thumb/arm946e-s/libc.a(libc_tinystdio_fread.c.o)
                0x02010d28                fread
 .text.fseek    0x02010ec8       0x40 /opt/wonderful/toolchain/gcc-arm-none-eabi/lib/gcc/arm-none-eabi/14.2.0/../../../../arm-none-eabi/lib/thumb/arm946e-s/libc.a(libc_tinystdio_fseek.c.o)
                0x02010ec8                fseek
 .text.ftell    0x02010f08       0x3c /opt/wonderful/toolchain/gcc-arm-none-eabi/lib/gcc/arm-none-eabi/14.2.0/../../../../arm-none-eabi/lib/thumb/arm946e-s/libc.a(libc_tinystdio_ftell.c.o)
                0x02010f08                ftell
 .text.printf   0x02010f44       0x20 /opt/wonderful/toolchain/gcc-arm-none-eabi/lib/gcc/arm-none-eabi/14.2.0/../../../../arm-none-eabi/lib/thumb/arm946e-s/libc.a(libc_tinystdio_printf.c.o)
                0x02010f44                printf
 .text.putchar  0x02010f64       0x10 /opt/wonderful/toolchain/gcc-arm-none-eabi/lib/gcc/arm-none-eabi/14.2.0/../../../../arm-none-eabi/lib/thumb/arm946e-s/libc.a(libc_tinystdio_putchar.c.o)
                0x02010f64                putchar
                0x02010f64                putchar_unlocked
 .text.puts     0x02010f74       0x40 /opt/wonderful/toolchain/gcc-arm-none-eabi/lib/gcc/arm-none-eabi/14.2.0/../../../../arm-none-eabi/lib/thumb/arm946e-s/libc.a(libc_tinystdio_puts.c.o)
                0x02010f74                puts
 .text.rewind   0x02010fb4       0x16 /opt/wonderful/toolchain/gcc-arm-none-eabi/lib/gcc/arm-none-eabi/14.2.0/../../../../arm-none-eabi/lib/thumb/arm946e-s/libc.a(libc_tinystdio_rewind.c.o)
                0x02010fb4                rewind
 .text.setvbuf  0x02010fca       0x18 /opt/wonderful/toolchain/gcc-arm-none-eabi/lib/gcc/arm-none-eabi/14.2.0/../../../../arm-none-eabi/lib/thumb/arm946e-s/libc.a(libc_tinystdio_setvbuf.c.o)
                0x02010fca                setvbuf
 *fill*         0x02010fe2        0x2 ff
 .text.snprintf
                0x02010fe4       0x5c /opt/wonderful/toolchain/gcc-arm-none-eabi/lib/gcc/arm-none-eabi/14.2.0/../../../../arm-none-eabi/lib/thumb/arm946e-s/libc.a(libc_tinystdio_snprintf.c.o)
                0x02010fe4                snprintf
 .text.sscanf   0x02011040       0x3c /opt/wonderful/toolchain/gcc-arm-none-eabi/lib/gcc/arm-none-eabi/14.2.0/../../../../arm-none-eabi/lib/thumb/arm946e-s/libc.a(libc_tinystdio_sscanf.c.o)
                0x02011040                sscanf
 .text.strtoul  0x0201107c      0x12c /opt/wonderful/toolchain/gcc-arm-none-eabi/lib/gcc/arm-none-eabi/14.2.0/../../../../arm-none-eabi/lib/thumb/arm946e-s/libc.a(libc_tinystdio_strtoul.c.o)
                0x0201107c                strtoul
 .text.__ultoa_invert
                0x020111a8       0x52 /opt/wonderful/toolchain/gcc-arm-none-eabi/lib/gcc/arm-none-eabi/14.2.0/../../../../arm-none-eabi/lib/thumb/arm946e-s/libc.a(libc_tinystdio_vfprintf.c.o)
 *fill*         0x020111fa        0x2 ff
 .text.skip_to_arg
                0x020111fc      0x13c /opt/wonderful/toolchain/gcc-arm-none-eabi/lib/gcc/arm-none-eabi/14.2.0/../../../../arm-none-eabi/lib/thumb/arm946e-s/libc.a(libc_tinystdio_vfprintf.c.o)
 .text.vfprintf
                0x02011338      0x9b4 /opt/wonderful/toolchain/gcc-arm-none-eabi/lib/gcc/arm-none-eabi/14.2.0/../../../../arm-none-eabi/lib/thumb/arm946e-s/libc.a(libc_tinystdio_vfprintf.c.o)
                0x02011338                __d_vfprintf
                0x02011338                vfprintf
 .text.scanf_getc
                0x02011cec       0x14 /opt/wonderful/toolchain/gcc-arm-none-eabi/lib/gcc/arm-none-eabi/14.2.0/../../../../arm-none-eabi/lib/thumb/arm946e-s/libc.a(libc_tinystdio_vfscanf.c.o)
 .text.scanf_ungetc
                0x02011d00       0x12 /opt/wonderful/toolchain/gcc-arm-none-eabi/lib/gcc/arm-none-eabi/14.2.0/../../../../arm-none-eabi/lib/thumb/arm946e-s/libc.a(libc_tinystdio_vfscanf.c.o)
 .text.skip_spaces
                0x02011d12       0x2a /opt/wonderful/toolchain/gcc-arm-none-eabi/lib/gcc/arm-none-eabi/14.2.0/../../../../arm-none-eabi/lib/thumb/arm946e-s/libc.a(libc_tinystdio_vfscanf.c.o)
 .text.putval   0x02011d3c       0x2a /opt/wonderful/toolchain/gcc-arm-none-eabi/lib/gcc/arm-none-eabi/14.2.0/../../../../arm-none-eabi/lib/thumb/arm946e-s/libc.a(libc_tinystdio_vfscanf.c.o)
 *fill*         0x02011d66        0x2 ff
 .text.vfscanf  0x02011d68      0x9e8 /opt/wonderful/toolchain/gcc-arm-none-eabi/lib/gcc/arm-none-eabi/14.2.0/../../../../arm-none-eabi/lib/thumb/arm946e-s/libc.a(libc_tinystdio_vfscanf.c.o)
                0x02011d68                __d_vfscanf
                0x02011d68                vfscanf
 .text.mulShift64
                0x02012750       0x64 /opt/wonderful/toolchain/gcc-arm-none-eabi/lib/gcc/arm-none-eabi/14.2.0/../../../../arm-none-eabi/lib/thumb/arm946e-s/libc.a(libc_tinystdio_atod_ryu.c.o)
 .text.__atod_engine
                0x020127b4      0x158 /opt/wonderful/toolchain/gcc-arm-none-eabi/lib/gcc/arm-none-eabi/14.2.0/../../../../arm-none-eabi/lib/thumb/arm946e-s/libc.a(libc_tinystdio_atod_ryu.c.o)
                0x020127b4                __atod_engine
 .text.__atof_engine
                0x0201290c      0x11e /opt/wonderful/toolchain/gcc-arm-none-eabi/lib/gcc/arm-none-eabi/14.2.0/../../../../arm-none-eabi/lib/thumb/arm946e-s/libc.a(libc_tinystdio_atof_ryu.c.o)
                0x0201290c                __atof_engine
 .text.mulShiftAll64
                0x02012a2a      0x208 /opt/wonderful/toolchain/gcc-arm-none-eabi/lib/gcc/arm-none-eabi/14.2.0/../../../../arm-none-eabi/lib/thumb/arm946e-s/libc.a(libc_tinystdio_dtoa_ryu.c.o)
 *fill*         0x02012c32        0x2 ff
 .text.div10    0x02012c34       0x28 /opt/wonderful/toolchain/gcc-arm-none-eabi/lib/gcc/arm-none-eabi/14.2.0/../../../../arm-none-eabi/lib/thumb/arm946e-s/libc.a(libc_tinystdio_dtoa_ryu.c.o)
 .text.__dtoa_engine
                0x02012c5c      0x4a0 /opt/wonderful/toolchain/gcc-arm-none-eabi/lib/gcc/arm-none-eabi/14.2.0/../../../../arm-none-eabi/lib/thumb/arm946e-s/libc.a(libc_tinystdio_dtoa_ryu.c.o)
                0x02012c5c                __dtoa_engine
 .text.mulShift32
                0x020130fc       0x4a /opt/wonderful/toolchain/gcc-arm-none-eabi/lib/gcc/arm-none-eabi/14.2.0/../../../../arm-none-eabi/lib/thumb/arm946e-s/libc.a(libc_tinystdio_ryu_divpow2.c.o)
 .text.__mulPow5InvDivPow2
                0x02013146       0x2a /opt/wonderful/toolchain/gcc-arm-none-eabi/lib/gcc/arm-none-eabi/14.2.0/../../../../arm-none-eabi/lib/thumb/arm946e-s/libc.a(libc_tinystdio_ryu_divpow2.c.o)
                0x02013146                __mulPow5InvDivPow2
 .text.__mulPow5divPow2
                0x02013170       0x22 /opt/wonderful/toolchain/gcc-arm-none-eabi/lib/gcc/arm-none-eabi/14.2.0/../../../../arm-none-eabi/lib/thumb/arm946e-s/libc.a(libc_tinystdio_ryu_divpow2.c.o)
                0x02013170                __mulPow5divPow2
 *fill*         0x02013192        0x2 ff
 .text.__log10Pow2
                0x02013194        0xc /opt/wonderful/toolchain/gcc-arm-none-eabi/lib/gcc/arm-none-eabi/14.2.0/../../../../arm-none-eabi/lib/thumb/arm946e-s/libc.a(libc_tinystdio_ryu_log10.c.o)
                0x02013194                __log10Pow2
 .text.__log10Pow5
                0x020131a0        0xc /opt/wonderful/toolchain/gcc-arm-none-eabi/lib/gcc/arm-none-eabi/14.2.0/../../../../arm-none-eabi/lib/thumb/arm946e-s/libc.a(libc_tinystdio_ryu_log10.c.o)
                0x020131a0                __log10Pow5
 .text.__log2pow5
                0x020131ac        0xc /opt/wonderful/toolchain/gcc-arm-none-eabi/lib/gcc/arm-none-eabi/14.2.0/../../../../arm-none-eabi/lib/thumb/arm946e-s/libc.a(libc_tinystdio_ryu_log2pow5.c.o)
                0x020131ac                __log2pow5
 .text.__ceil_log2pow5
                0x020131b8       0x10 /opt/wonderful/toolchain/gcc-arm-none-eabi/lib/gcc/arm-none-eabi/14.2.0/../../../../arm-none-eabi/lib/thumb/arm946e-s/libc.a(libc_tinystdio_ryu_log2pow5.c.o)
                0x020131b8                __ceil_log2pow5
 .text.__pow5bits
                0x020131c8       0x10 /opt/wonderful/toolchain/gcc-arm-none-eabi/lib/gcc/arm-none-eabi/14.2.0/../../../../arm-none-eabi/lib/thumb/arm946e-s/libc.a(libc_tinystdio_ryu_pow5bits.c.o)
                0x020131c8                __pow5bits
 .text.__pow5Factor
                0x020131d8       0x2c /opt/wonderful/toolchain/gcc-arm-none-eabi/lib/gcc/arm-none-eabi/14.2.0/../../../../arm-none-eabi/lib/thumb/arm946e-s/libc.a(libc_tinystdio_ryu_table.c.o)
                0x020131d8                __pow5Factor
 .text.__double_computePow5
                0x02013204      0x104 /opt/wonderful/toolchain/gcc-arm-none-eabi/lib/gcc/arm-none-eabi/14.2.0/../../../../arm-none-eabi/lib/thumb/arm946e-s/libc.a(libc_tinystdio_ryu_table.c.o)
                0x02013204                __double_computePow5
 .text.__double_computeInvPow5
                0x02013308      0x100 /opt/wonderful/toolchain/gcc-arm-none-eabi/lib/gcc/arm-none-eabi/14.2.0/../../../../arm-none-eabi/lib/thumb/arm946e-s/libc.a(libc_tinystdio_ryu_table.c.o)
                0x02013308                __double_computeInvPow5
 .text.__umul128
                0x02013408       0x6a /opt/wonderful/toolchain/gcc-arm-none-eabi/lib/gcc/arm-none-eabi/14.2.0/../../../../arm-none-eabi/lib/thumb/arm946e-s/libc.a(libc_tinystdio_ryu_umul128.c.o)
                0x02013408                __umul128
 .text.__shiftright128
                0x02013472       0x28 /opt/wonderful/toolchain/gcc-arm-none-eabi/lib/gcc/arm-none-eabi/14.2.0/../../../../arm-none-eabi/lib/thumb/arm946e-s/libc.a(libc_tinystdio_ryu_umul128.c.o)
                0x02013472                __shiftright128
 .text.__picolibc_non_atomic_exchange_ungetc
                0x0201349a        0x8 /opt/wonderful/toolchain/gcc-arm-none-eabi/lib/gcc/arm-none-eabi/14.2.0/../../../../arm-none-eabi/lib/thumb/arm946e-s/libc.a(libc_tinystdio_exchange.c.o)
                0x0201349a                __atomic_exchange_ungetc
                0x0201349a                __picolibc_non_atomic_exchange_ungetc
 *fill*         0x020134a2        0x2 ff
 .text.fdopen   0x020134a4       0xac /opt/wonderful/toolchain/gcc-arm-none-eabi/lib/gcc/arm-none-eabi/14.2.0/../../../../arm-none-eabi/lib/thumb/arm946e-s/libc.a(libc_tinystdio_fdopen.c.o)
                0x020134a4                fdopen
 .text.fopen    0x02013550       0x2e /opt/wonderful/toolchain/gcc-arm-none-eabi/lib/gcc/arm-none-eabi/14.2.0/../../../../arm-none-eabi/lib/thumb/arm946e-s/libc.a(libc_tinystdio_fopen.c.o)
                0x02013550                fopen
 .text.memmove  0x0201357e       0x24 /opt/wonderful/toolchain/gcc-arm-none-eabi/lib/gcc/arm-none-eabi/14.2.0/../../../../arm-none-eabi/lib/thumb/arm946e-s/libc.a(memmove.c.o)
                0x0201357e                memmove
                0x0201357e                __aeabi_memmove8
                0x0201357e                __aeabi_memmove
                0x0201357e                __aeabi_memmove4
 *fill*         0x020135a2        0x2 ff
 .text.__libc_fini_array
                0x020135a4       0x30 /opt/wonderful/toolchain/gcc-arm-none-eabi/lib/gcc/arm-none-eabi/14.2.0/../../../../arm-none-eabi/lib/thumb/arm946e-s/libc.a(libc_misc_fini.c.o)
                0x020135a4                __libc_fini_array
 .text.getenv   0x020135d4        0xa /opt/wonderful/toolchain/gcc-arm-none-eabi/lib/gcc/arm-none-eabi/14.2.0/../../../../arm-none-eabi/lib/thumb/arm946e-s/libc.a(libc_stdlib_getenv.c.o)
                0x020135d4                getenv
 *fill*         0x020135de        0x2 ff
 .text._findenv
                0x020135e0       0x7c /opt/wonderful/toolchain/gcc-arm-none-eabi/lib/gcc/arm-none-eabi/14.2.0/../../../../arm-none-eabi/lib/thumb/arm946e-s/libc.a(libc_stdlib_getenv_r.c.o)
                0x020135e0                _findenv
 .text.strnlen  0x0201365c       0x16 /opt/wonderful/toolchain/gcc-arm-none-eabi/lib/gcc/arm-none-eabi/14.2.0/../../../../arm-none-eabi/lib/thumb/arm946e-s/libc.a(libc_string_strnlen.c.o)
                0x0201365c                strnlen
 *fill*         0x02013672        0x2 ff
 .text.__gettzinfo
                0x02013674        0x8 /opt/wonderful/toolchain/gcc-arm-none-eabi/lib/gcc/arm-none-eabi/14.2.0/../../../../arm-none-eabi/lib/thumb/arm946e-s/libc.a(libc_time_gettzinfo.c.o)
                0x02013674                __gettzinfo
 .text.gmtime_r
                0x0201367c      0x1d4 /opt/wonderful/toolchain/gcc-arm-none-eabi/lib/gcc/arm-none-eabi/14.2.0/../../../../arm-none-eabi/lib/thumb/arm946e-s/libc.a(libc_time_gmtime_r.c.o)
                0x0201367c                gmtime_r
 .text.__picolibc_non_atomic_load_ungetc
                0x02013850        0x4 /opt/wonderful/toolchain/gcc-arm-none-eabi/lib/gcc/arm-none-eabi/14.2.0/../../../../arm-none-eabi/lib/thumb/arm946e-s/libc.a(libc_tinystdio_atomic_load.c.o)
                0x02013850                __atomic_load_ungetc
                0x02013850                __picolibc_non_atomic_load_ungetc
 .text.__bufio_flush_locked
                0x02013854       0x66 /opt/wonderful/toolchain/gcc-arm-none-eabi/lib/gcc/arm-none-eabi/14.2.0/../../../../arm-none-eabi/lib/thumb/arm946e-s/libc.a(libc_tinystdio_bufio.c.o)
                0x02013854                __bufio_flush_locked
 .text.__bufio_fill_locked
                0x020138ba       0x2c /opt/wonderful/toolchain/gcc-arm-none-eabi/lib/gcc/arm-none-eabi/14.2.0/../../../../arm-none-eabi/lib/thumb/arm946e-s/libc.a(libc_tinystdio_bufio.c.o)
                0x020138ba                __bufio_fill_locked
 .text.__bufio_flush
                0x020138e6       0x1c /opt/wonderful/toolchain/gcc-arm-none-eabi/lib/gcc/arm-none-eabi/14.2.0/../../../../arm-none-eabi/lib/thumb/arm946e-s/libc.a(libc_tinystdio_bufio.c.o)
                0x020138e6                __bufio_flush
 .text.__bufio_setdir_locked
                0x02013902       0x1a /opt/wonderful/toolchain/gcc-arm-none-eabi/lib/gcc/arm-none-eabi/14.2.0/../../../../arm-none-eabi/lib/thumb/arm946e-s/libc.a(libc_tinystdio_bufio.c.o)
                0x02013902                __bufio_setdir_locked
 .text.__bufio_put
                0x0201391c       0x50 /opt/wonderful/toolchain/gcc-arm-none-eabi/lib/gcc/arm-none-eabi/14.2.0/../../../../arm-none-eabi/lib/thumb/arm946e-s/libc.a(libc_tinystdio_bufio.c.o)
                0x0201391c                __bufio_put
 .text.__bufio_get
                0x0201396c       0x84 /opt/wonderful/toolchain/gcc-arm-none-eabi/lib/gcc/arm-none-eabi/14.2.0/../../../../arm-none-eabi/lib/thumb/arm946e-s/libc.a(libc_tinystdio_bufio.c.o)
                0x0201396c                __bufio_get
 .text.__bufio_seek
                0x020139f0       0x6c /opt/wonderful/toolchain/gcc-arm-none-eabi/lib/gcc/arm-none-eabi/14.2.0/../../../../arm-none-eabi/lib/thumb/arm946e-s/libc.a(libc_tinystdio_bufio.c.o)
                0x020139f0                __bufio_seek
 .text.__bufio_setvbuf
                0x02013a5c       0x8a /opt/wonderful/toolchain/gcc-arm-none-eabi/lib/gcc/arm-none-eabi/14.2.0/../../../../arm-none-eabi/lib/thumb/arm946e-s/libc.a(libc_tinystdio_bufio.c.o)
                0x02013a5c                __bufio_setvbuf
 .text.__bufio_close
                0x02013ae6       0x48 /opt/wonderful/toolchain/gcc-arm-none-eabi/lib/gcc/arm-none-eabi/14.2.0/../../../../arm-none-eabi/lib/thumb/arm946e-s/libc.a(libc_tinystdio_bufio.c.o)
                0x02013ae6                __bufio_close
 *fill*         0x02013b2e        0x2 ff
 .text.__dtox_engine
                0x02013b30      0x13c /opt/wonderful/toolchain/gcc-arm-none-eabi/lib/gcc/arm-none-eabi/14.2.0/../../../../arm-none-eabi/lib/thumb/arm946e-s/libc.a(libc_tinystdio_dtox_engine.c.o)
                0x02013b30                __dtox_engine
 .text.fgetc    0x02013c6c       0x48 /opt/wonderful/toolchain/gcc-arm-none-eabi/lib/gcc/arm-none-eabi/14.2.0/../../../../arm-none-eabi/lib/thumb/arm946e-s/libc.a(libc_tinystdio_fgetc.c.o)
                0x02013c6c                getc_unlocked
                0x02013c6c                getc
                0x02013c6c                fgetc
 .text.__file_str_get
                0x02013cb4       0x16 /opt/wonderful/toolchain/gcc-arm-none-eabi/lib/gcc/arm-none-eabi/14.2.0/../../../../arm-none-eabi/lib/thumb/arm946e-s/libc.a(libc_tinystdio_filestrget.c.o)
                0x02013cb4                __file_str_get
 .text.__file_str_put
                0x02013cca       0x10 /opt/wonderful/toolchain/gcc-arm-none-eabi/lib/gcc/arm-none-eabi/14.2.0/../../../../arm-none-eabi/lib/thumb/arm946e-s/libc.a(libc_tinystdio_filestrput.c.o)
                0x02013cca                __file_str_put
 .text.fputc    0x02013cda       0x2c /opt/wonderful/toolchain/gcc-arm-none-eabi/lib/gcc/arm-none-eabi/14.2.0/../../../../arm-none-eabi/lib/thumb/arm946e-s/libc.a(libc_tinystdio_fputc.c.o)
                0x02013cda                putc_unlocked
                0x02013cda                putc
                0x02013cda                fputc
 *fill*         0x02013d06        0x2 ff
 .text.fseeko   0x02013d08       0x40 /opt/wonderful/toolchain/gcc-arm-none-eabi/lib/gcc/arm-none-eabi/14.2.0/../../../../arm-none-eabi/lib/thumb/arm946e-s/libc.a(libc_tinystdio_fseeko.c.o)
                0x02013d08                fseeko
 .text.__posix_sflags
                0x02013d48       0x58 /opt/wonderful/toolchain/gcc-arm-none-eabi/lib/gcc/arm-none-eabi/14.2.0/../../../../arm-none-eabi/lib/thumb/arm946e-s/libc.a(libc_tinystdio_sflags.c.o)
                0x02013d48                __posix_sflags
 .text.ungetc   0x02013da0       0x36 /opt/wonderful/toolchain/gcc-arm-none-eabi/lib/gcc/arm-none-eabi/14.2.0/../../../../arm-none-eabi/lib/thumb/arm946e-s/libc.a(libc_tinystdio_ungetc.c.o)
                0x02013da0                ungetc
 .text.__picolibc_non_atomic_compare_exchange_ungetc
                0x02013dd6       0x12 /opt/wonderful/toolchain/gcc-arm-none-eabi/lib/gcc/arm-none-eabi/14.2.0/../../../../arm-none-eabi/lib/thumb/arm946e-s/libc.a(libc_tinystdio_compare_exchange.c.o)
                0x02013dd6                __picolibc_non_atomic_compare_exchange_ungetc
                0x02013dd6                __atomic_compare_exchange_ungetc
 .text.gettimeofday
                0x02013de8       0x1c /opt/blocksds/core/libs/libnds/lib/libnds9.a(syscalls.c.o)
                0x02013de8                gettimeofday
 *fill*         0x02013e04        0x4 ff
 .text.gettimeofday.__stub
                0x02013e08       0x28 linker stubs
 *(EXCLUDE_FILE(*.twl*) .gnu.warning)
 *(EXCLUDE_FILE(*.twl*) .gnu.linkonce.t*)
 *(.glue_7)
 .glue_7        0x02013e30        0x0 linker stubs
 *(.glue_7t)
 .glue_7t       0x02013e30        0x0 linker stubs
                0x02013e30                        . = ALIGN (0x4)

.vfp11_veneer   0x02013e30        0x0
 .vfp11_veneer  0x02013e30        0x0 linker stubs

.v4_bx          0x02013e30        0x0
 .v4_bx         0x02013e30        0x0 linker stubs

.iplt           0x02013e30        0x0
 .iplt          0x02013e30        0x0 /opt/blocksds/core/sys/crts/ds_arm9_crt0.o

.fini           0x02013e30        0x8
 *(.fini)
 .fini          0x02013e30        0x8 /opt/wonderful/toolchain/gcc-arm-none-eabi/lib/gcc/arm-none-eabi/14.2.0/thumb/arm946e-s/crtn.o
                0x02013e38                        __text_end = .

.rodata         0x02013e38     0x19c4
 *(EXCLUDE_FILE(*.twl*) .rodata)
 .rodata        0x02013e38       0x90 /opt/blocksds/external/nflib/lib/libnflib.a(nf_sprite256.c.o)
 .rodata        0x02013ec8       0x40 /opt/blocksds/core/libs/libnds/lib/libnds9.a(exceptions.c.o)
 .rodata        0x02013f08       0x14 /opt/blocksds/core/libs/libnds/lib/libnds9.a(fatfs.c.o)
 .rodata        0x02013f1c       0x18 /opt/wonderful/toolchain/gcc-arm-none-eabi/lib/gcc/arm-none-eabi/14.2.0/../../../../arm-none-eabi/lib/thumb/arm946e-s/libc.a(libc_time_month_lengths.c.o)
                0x02013f1c                __month_lengths
 .rodata        0x02013f34        0xb /opt/wonderful/toolchain/gcc-arm-none-eabi/lib/gcc/arm-none-eabi/14.2.0/../../../../arm-none-eabi/lib/thumb/arm946e-s/libc.a(libc_tinystdio_vfscanf.c.o)
 *fill*         0x02013f3f        0x1 ff
 .rodata        0x02013f40      0x338 /opt/wonderful/toolchain/gcc-arm-none-eabi/lib/gcc/arm-none-eabi/14.2.0/../../../../arm-none-eabi/lib/thumb/arm946e-s/libc.a(libc_tinystdio_ryu_table.c.o)
 *all.rodata*(*)
 *(EXCLUDE_FILE(*.twl*) .roda)
 *(EXCLUDE_FILE(*.twl*) .rodata.*)
 .rodata.main.str1.4
                0x02014278      0x94d build/test_repository/source/main.c.o
                                 0xb9 (size before relaxing)
 .rodata.NF_Error.str1.4
                0x02014bc5      0x408 /opt/blocksds/external/nflib/lib/libnflib.a(nf_basic.c.o)
 *fill*         0x02014bc5        0x3 ff
 .rodata.NF_Error
                0x02014bc8       0x5c /opt/blocksds/external/nflib/lib/libnflib.a(nf_basic.c.o)
 .rodata.NF_SetRootFolder.str1.4
                0x02014c24      0x256 /opt/blocksds/external/nflib/lib/libnflib.a(nf_basic.c.o)
 .rodata.NF_FileLoad.str1.4
                0x02014c24        0x3 /opt/blocksds/external/nflib/lib/libnflib.a(nf_basic.c.o)
 .rodata.NF_LoadCollisionMap.str1.4
                0x02014c24       0x26 /opt/blocksds/external/nflib/lib/libnflib.a(nf_collision.c.o)
 .rodata.NF_LoadTextFont.str1.4
                0x02014c24       0x37 /opt/blocksds/external/nflib/lib/libnflib.a(nf_text.c.o)
 .rodata.NF_CreateTextLayer.str1.4
                0x02014c24        0x9 /opt/blocksds/external/nflib/lib/libnflib.a(nf_text.c.o)
 .rodata.NF_WriteText
                0x02014c24      0x170 /opt/blocksds/external/nflib/lib/libnflib.a(nf_text.c.o)
 .rodata.NF_InitTiledBgBuffers.str1.4
                0x02014d94        0xd /opt/blocksds/external/nflib/lib/libnflib.a(nf_tiledbg.c.o)
 .rodata.NF_LoadTiledBg.str1.4
                0x02014d94       0x37 /opt/blocksds/external/nflib/lib/libnflib.a(nf_tiledbg.c.o)
 .rodata.NF_DeleteTiledBg.str1.4
                0x02014d94        0x3 /opt/blocksds/external/nflib/lib/libnflib.a(nf_tiledbg.c.o)
 .rodata.NF_GetTileMapAddress.str1.4
                0x02014d94        0xf /opt/blocksds/external/nflib/lib/libnflib.a(nf_tiledbg.c.o)
 .rodata.NF_LoadSpriteGfx.str1.4
                0x02014d94       0x1a /opt/blocksds/external/nflib/lib/libnflib.a(nf_sprite256.c.o)
 .rodata.NF_LoadSpritePal.str1.4
                0x02014d94       0x1a /opt/blocksds/external/nflib/lib/libnflib.a(nf_sprite256.c.o)
 .rodata.NF_VramSpriteGfx.str1.4
                0x02014d94       0x20 /opt/blocksds/external/nflib/lib/libnflib.a(nf_sprite256.c.o)
 .rodata.NF_VramSpritePal.str1.4
                0x02014d94       0x14 /opt/blocksds/external/nflib/lib/libnflib.a(nf_sprite256.c.o)
 .rodata.NF_CreateSprite.str1.4
                0x02014d94       0x18 /opt/blocksds/external/nflib/lib/libnflib.a(nf_sprite256.c.o)
 .rodata.con_write
                0x02014d94      0x118 /opt/blocksds/core/libs/libnds/lib/libnds9.a(console.c.o)
 .rodata.bgTransform
                0x02014eac       0x20 /opt/blocksds/core/libs/libnds/lib/libnds9.a(background.c.o)
                0x02014eac                bgTransform
 .rodata.bgScrollTable
                0x02014ecc       0x20 /opt/blocksds/core/libs/libnds/lib/libnds9.a(background.c.o)
                0x02014ecc                bgScrollTable
 .rodata.bgControl
                0x02014eec       0x20 /opt/blocksds/core/libs/libnds/lib/libnds9.a(background.c.o)
                0x02014eec                bgControl
 .rodata.systemValueHandler.str1.4
                0x02014f0c       0x1b /opt/blocksds/core/libs/libnds/lib/libnds9.a(system.c.o)
 .rodata.releaseCrashHandler.str1.4
                0x02014f0c       0x33 /opt/blocksds/core/libs/libnds/lib/libnds9.a(exceptions.c.o)
 .rodata.exceptionStatePrint.str1.4
                0x02014f0c       0x54 /opt/blocksds/core/libs/libnds/lib/libnds9.a(exceptions.c.o)
 .rodata.str1.4
                0x02014f0c       0x40 /opt/blocksds/core/libs/libnds/lib/libnds9.a(exceptions.c.o)
 .rodata.chdir.str1.4
                0x02014f0c        0xb /opt/blocksds/core/libs/libnds/lib/libnds9.a(chdir.c.o)
 .rodata.nitrofs_use_for_path.str1.4
                0x02014f0c        0xc /opt/blocksds/core/libs/libnds/lib/libnds9.a(nitrofs.c.o)
 .rodata.nitroFSInit.str1.4
                0x02014f0c        0x2 /opt/blocksds/core/libs/libnds/lib/libnds9.a(nitrofs.c.o)
 .rodata.stderr
                0x02014f0c        0x4 /opt/blocksds/core/libs/libnds/lib/libnds9.a(iob.c.o)
                0x02014f0c                stderr
 .rodata.stdout
                0x02014f10        0x4 /opt/blocksds/core/libs/libnds/lib/libnds9.a(iob.c.o)
                0x02014f10                stdout
 .rodata.stdin  0x02014f14        0x4 /opt/blocksds/core/libs/libnds/lib/libnds9.a(iob.c.o)
                0x02014f14                stdin
 .rodata.fatGetDefaultCwd.str1.4
                0x02014f18        0xd /opt/blocksds/core/libs/libnds/lib/libnds9.a(fatfs.c.o)
 .rodata.CSWTCH.24
                0x02014f18        0xc /opt/blocksds/core/libs/libnds/lib/libnds9.a(filesystem.c.o)
 .rodata.__retarget_lock_init_recursive.str1.4
                0x02014f24        0xa /opt/blocksds/core/libs/libnds/lib/libnds9.a(locks.c.o)
 .rodata.__retarget_lock_close_recursive.str1.4
                0x02014f24        0xb /opt/blocksds/core/libs/libnds/lib/libnds9.a(locks.c.o)
 .rodata.__retarget_lock_release_recursive.str1.4
                0x02014f24        0xd /opt/blocksds/core/libs/libnds/lib/libnds9.a(locks.c.o)
 .rodata.get_ldnumber.str1.4
                0x02014f24        0x7 /opt/blocksds/core/libs/libnds/lib/libnds9.a(ff.c.o)
 .rodata.follow_path.str1.4
                0x02014f24       0x13 /opt/blocksds/core/libs/libnds/lib/libnds9.a(ff.c.o)
 .rodata.check_fs.str1.4
                0x02014f24        0x9 /opt/blocksds/core/libs/libnds/lib/libnds9.a(ff.c.o)
 .rodata.ExCvt  0x02014f24       0x80 /opt/blocksds/core/libs/libnds/lib/libnds9.a(ff.c.o)
 .rodata.LfnOfs
                0x02014fa4        0xd /opt/blocksds/core/libs/libnds/lib/libnds9.a(ff.c.o)
 *fill*         0x02014fb1        0x3 ff
 .rodata.ff_wtoupper
                0x02014fb4       0x24 /opt/blocksds/core/libs/libnds/lib/libnds9.a(ffunicode.c.o)
 .rodata.cvt2.0
                0x02014fd8       0xbc /opt/blocksds/core/libs/libnds/lib/libnds9.a(ffunicode.c.o)
 .rodata.cvt1.1
                0x02015094      0x1f2 /opt/blocksds/core/libs/libnds/lib/libnds9.a(ffunicode.c.o)
 *fill*         0x02015286        0x2 ff
 .rodata.uc437  0x02015288      0x100 /opt/blocksds/core/libs/libnds/lib/libnds9.a(ffunicode.c.o)
 .rodata.default_fontTiles
                0x02015388      0x300 /opt/blocksds/core/libs/libnds/lib/libnds9.a(default_font.png.o)
                0x02015388                default_fontTiles
 .rodata.SIN_LUT
                0x02015688      0x102 /opt/blocksds/core/libs/libnds/lib/libnds9.a(trig.c.o)
                0x02015688                SIN_LUT
 .rodata.str1.1
                0x0201578a       0x72 /opt/wonderful/toolchain/gcc-arm-none-eabi/lib/gcc/arm-none-eabi/14.2.0/../../../../arm-none-eabi/lib/thumb/arm946e-s/libc.a(libc_time_tzset.c.o)
                                 0x61 (size before relaxing)
 .rodata.str1.1
                0x020157fc        0x4 /opt/wonderful/toolchain/gcc-arm-none-eabi/lib/gcc/arm-none-eabi/14.2.0/../../../../arm-none-eabi/lib/thumb/arm946e-s/libc.a(libc_time_tzvars.c.o)
 .rodata.str1.1
                0x020157fc        0xf /opt/wonderful/toolchain/gcc-arm-none-eabi/lib/gcc/arm-none-eabi/14.2.0/../../../../arm-none-eabi/lib/thumb/arm946e-s/libc.a(libc_tinystdio_vfprintf.c.o)
 .rodata.str1.1
                0x020157fc       0x15 /opt/wonderful/toolchain/gcc-arm-none-eabi/lib/gcc/arm-none-eabi/14.2.0/../../../../arm-none-eabi/lib/thumb/arm946e-s/libc.a(libc_tinystdio_vfscanf.c.o)
 *(EXCLUDE_FILE(*.twl*) .gnu.linkonce.r*)
                0x02015814                        . = ALIGN (0x4)

.ARM.extab
 *(.ARM.extab* .gnu.linkonce.armextab.*)
                0x020157fc                        __exidx_start = .

ARM.exidx       0x020157fc        0x8
 *(.ARM.exidx* .gnu.linkonce.armexidx.*)
 .ARM.exidx     0x020157fc        0x8 /opt/wonderful/toolchain/gcc-arm-none-eabi/lib/gcc/arm-none-eabi/14.2.0/thumb/arm946e-s/libgcc.a(_udivmoddi4.o)
                0x02015804                        __exidx_end = .
                0x02015804                        . = ALIGN (0x4)

.preinit_array  0x02015804        0x0
                0x02015804                        PROVIDE (__preinit_array_start = .)
 *(.preinit_array)
                0x02015804                        PROVIDE (__preinit_array_end = .)

.init_array     0x02015804        0x0
                0x02015804                        PROVIDE (__init_array_start = .)
 *(SORT_BY_INIT_PRIORITY(.init_array.*) SORT_BY_INIT_PRIORITY(.ctors.*))
 *(.init_array EXCLUDE_FILE(*crtend?.o *crtend.o *crtbegin?.o *crtbegin.o) .ctors)
                0x02015804                        PROVIDE (__init_array_end = .)

.fini_array     0x02015804        0x0
                0x02015804                        PROVIDE (__fini_array_start = .)
 *(SORT_BY_INIT_PRIORITY(.fini_array.*) SORT_BY_INIT_PRIORITY(.dtors.*))
 *(.fini_array EXCLUDE_FILE(*crtend?.o *crtend.o *crtbegin?.o *crtbegin.o) .dtors)
                0x02015804                        PROVIDE (__fini_array_end = .)

.ctors          0x02015804        0x0
 *crtbegin.o(.ctors)
 *crtbegin?.o(.ctors)
 *(EXCLUDE_FILE(*crtend?.o *crtend.o) .ctors)
 *(SORT_BY_NAME(.ctors.*))
 *(.ctors)
                0x02015804                        . = ALIGN (0x4)

.dtors          0x02015804        0x0
 *crtbegin.o(.dtors)
 *crtbegin?.o(.dtors)
 *(EXCLUDE_FILE(*crtend?.o *crtend.o) .dtors)
 *(SORT_BY_NAME(.dtors.*))
 *(.dtors)
                0x02015804                        . = ALIGN (0x4)

.eh_frame       0x02015804        0x4
 *(.eh_frame)
 .eh_frame      0x02015804        0x4 /opt/wonderful/toolchain/gcc-arm-none-eabi/lib/gcc/arm-none-eabi/14.2.0/thumb/arm946e-s/crtend.o
                0x02015808                        . = ALIGN (0x4)

.gcc_except_table
                0x02015808        0x0
 *(.gcc_except_table .gcc_except_table.*)
                0x02015808                        . = ALIGN (0x4)

.got            0x02015808       0x10
 *(.got.plt)
 .got.plt       0x02015808        0xc /opt/blocksds/core/sys/crts/ds_arm9_crt0.o
                0x02015808                _GLOBAL_OFFSET_TABLE_
 *(.got)
 .got           0x02015814        0x4 /opt/blocksds/core/sys/crts/ds_arm9_crt0.o
 *(.rel.got)
 .rel.got       0x02015818        0x0 /opt/blocksds/core/sys/crts/ds_arm9_crt0.o

.ewram          0x02015818        0x0
                0x02015818                        __ewram_start = ABSOLUTE (.)
 *(.ewram)
 *ewram.*(.text)
                0x02015818                        . = ALIGN (0x4)

.data           0x02015818      0x4ec
                0x02015818                        __data_start = ABSOLUTE (.)
 *(EXCLUDE_FILE(*.twl*) .data)
 .data          0x02015818       0x28 /opt/blocksds/core/libs/libnds/lib/libnds9.a(mpu_setup.s.o)
 .data          0x02015840      0x410 /opt/wonderful/toolchain/gcc-arm-none-eabi/lib/gcc/arm-none-eabi/14.2.0/../../../../arm-none-eabi/lib/thumb/arm946e-s/libc.a(malloc-malloc.c.o)
                0x02015840                __malloc_sbrk_base
                0x02015844                __malloc_trim_threshold
                0x02015848                __malloc_av_
 .data          0x02015c50        0x8 /opt/wonderful/toolchain/gcc-arm-none-eabi/lib/gcc/arm-none-eabi/14.2.0/../../../../arm-none-eabi/lib/thumb/arm946e-s/libc.a(libc_time_tzvars.c.o)
                0x02015c50                tzname
 .data          0x02015c58        0x4 /opt/wonderful/toolchain/gcc-arm-none-eabi/lib/gcc/arm-none-eabi/14.2.0/../../../../arm-none-eabi/lib/thumb/arm946e-s/libc.a(libc_stdlib_environ.c.o)
                0x02015c58                environ
 *(EXCLUDE_FILE(*.twl*) .data.*)
 .data.firstConsoleInit.0
                0x02015c5c        0x1 /opt/blocksds/core/libs/libnds/lib/libnds9.a(console.c.o)
 *fill*         0x02015c5d        0x3 ff
 .data.currentConsole
                0x02015c60        0x4 /opt/blocksds/core/libs/libnds/lib/libnds9.a(console.c.o)
 .data.oamSub   0x02015c64       0x14 /opt/blocksds/core/libs/libnds/lib/libnds9.a(sprite.c.o)
                0x02015c64                oamSub
 .data.oamMain  0x02015c78       0x14 /opt/blocksds/core/libs/libnds/lib/libnds9.a(sprite.c.o)
                0x02015c78                oamMain
 .data.count    0x02015c8c        0x1 /opt/blocksds/core/libs/libnds/lib/libnds9.a(keys.c.o)
 .data.repeat   0x02015c8d        0x1 /opt/blocksds/core/libs/libnds/lib/libnds9.a(keys.c.o)
 .data.delay    0x02015c8e        0x1 /opt/blocksds/core/libs/libnds/lib/libnds9.a(keys.c.o)
 *fill*         0x02015c8f        0x1 ff
 .data.latchedArm7Buttons
                0x02015c90        0x2 /opt/blocksds/core/libs/libnds/lib/libnds9.a(keys.c.o)
 .data.receivedArm7Buttons
                0x02015c92        0x2 /opt/blocksds/core/libs/libnds/lib/libnds9.a(keys.c.o)
 .data.__stderr
                0x02015c94       0x10 /opt/blocksds/core/libs/libnds/lib/libnds9.a(iob.c.o)
 .data.__stdout
                0x02015ca4       0x10 /opt/blocksds/core/libs/libnds/lib/libnds9.a(iob.c.o)
 .data.__stdin  0x02015cb4       0x10 /opt/blocksds/core/libs/libnds/lib/libnds9.a(iob.c.o)
 .data.__tls    0x02015cc4        0x4 /opt/blocksds/core/libs/libnds/lib/libnds9.a(threads.c.o)
                0x02015cc4                __tls
 .data.fifo_freewords
                0x02015cc8        0x4 /opt/blocksds/core/libs/libnds/lib/libnds9.a(fifosystem.c.o)
 .data.fifo_receive_queue
                0x02015ccc        0x4 /opt/blocksds/core/libs/libnds/lib/libnds9.a(fifosystem.c.o)
 .data.fifo_send_queue
                0x02015cd0        0x4 /opt/blocksds/core/libs/libnds/lib/libnds9.a(fifosystem.c.o)
 .data.fifo_buffer_free
                0x02015cd4        0x4 /opt/blocksds/core/libs/libnds/lib/libnds9.a(fifosystem.c.o)
 .data.dldi_mode
                0x02015cd8        0x1 /opt/blocksds/core/libs/libnds/lib/libnds9.a(dldi.c.o)
 *fill*         0x02015cd9        0x7 ff
 .data.__io_dldi_arm7_interface
                0x02015ce0       0x20 /opt/blocksds/core/libs/libnds/lib/libnds9.a(dldi.c.o)
                0x02015ce0                __io_dldi_arm7_interface
 .data.lastKey  0x02015d00        0x2 /opt/blocksds/core/libs/libnds/lib/libnds9.a(keyboard.c.o)
                0x02015d00                lastKey
 *(EXCLUDE_FILE(*.twl*) .gnu.linkonce.d*)
                0x02015d04                        . = ALIGN (0x4)
 *fill*         0x02015d02        0x2 ff

.igot.plt       0x02015d04        0x0
 .igot.plt      0x02015d04        0x0 /opt/blocksds/core/sys/crts/ds_arm9_crt0.o

.tdata          0x02015d04        0x0
                0x02015d04                        __tdata_start = ABSOLUTE (.)
 *(.tdata .tdata.* .gnu.linkonce.td.*)
                0x02015d04                        . = ALIGN (0x4)
                0x02015d04                        __tdata_end = ABSOLUTE (.)
                0x02015d04                        __data_end = .
                0x00000000                        __tdata_size = (__tdata_end - __tdata_start)

.tbss           0x02015d04       0x28
                0x02015d04                        __tbss_start = ABSOLUTE (.)
 *(.tbss .tbss.* .gnu.linkonce.tb.*)
 .tbss          0x02015d04        0x4 /opt/wonderful/toolchain/gcc-arm-none-eabi/lib/gcc/arm-none-eabi/14.2.0/../../../../arm-none-eabi/lib/thumb/arm946e-s/libc.a(libc_errno_errno.c.o)
                0x02015d04                errno
 .tbss          0x02015d08       0x24 /opt/wonderful/toolchain/gcc-arm-none-eabi/lib/gcc/arm-none-eabi/14.2.0/../../../../arm-none-eabi/lib/thumb/arm946e-s/libc.a(libc_time_lcltime_buf.c.o)
                0x02015d08                _localtime_buf
 *(.tcommon)
                0x02015d2c                        . = ALIGN (0x4)
                0x02015d2c                        __tbss_end = ABSOLUTE (.)
                0x00000028                        __tbss_size = (__tbss_end - __tbss_start)
                0x02015d04                        __bss_vma = .

.dtcm           0x02ff0000        0x0 load address 0x02015d04
                0x02015d04                        __dtcm_lma = LOADADDR (.dtcm)
 *(.dtcm)
 *(.dtcm.*)
                0x02ff0000                        . = ALIGN (0x4)
                0x02ff0000                        __dtcm_end = ABSOLUTE (.)

.itcm           0x01000000      0x21c load address 0x02015d04
                0x02015d04                        __itcm_lma = LOADADDR (.itcm)
                0x01000000                        __itcm_start = ABSOLUTE (.)
 *(.vectors .vectors.*)
 *(.itcm)
 *(.itcm.*)
 .itcm.text     0x01000000       0x8c /opt/blocksds/core/libs/libnds/lib/libnds9.a(cache.c.o)
                0x01000000                CP15_CleanAndFlushDCacheRange
                0x01000034                CP15_FlushDCacheRange
                0x01000060                CP15_FlushICacheRange
 .itcm.data     0x0100008c       0x80 /opt/blocksds/core/libs/libnds/lib/libnds9.a(interrupts.c.o)
                0x0100008c                irqTable
 .itcm.setCpuClock
                0x0100010c       0x50 /opt/blocksds/core/libs/libnds/lib/libnds9.a(cpu_clock.s.o)
                0x0100010c                setCpuClock
 .itcm.IntrMain
                0x0100015c       0xc0 /opt/blocksds/core/libs/libnds/lib/libnds9.a(interruptDispatcher.s.o)
                0x0100015c                IntrMain
 *.itcm*(.text .stub .text.*)
                0x0100021c                        . = ALIGN (0x4)
                0x0100021c                        __itcm_end = ABSOLUTE (.)

.sbss           0x02ff0000        0x4
                0x02ff0000                        __sbss_start = ABSOLUTE (.)
                0x02ff0000                        __sbss_start__ = ABSOLUTE (.)
 *(.sbss)
 .sbss          0x02ff0000        0x4 /opt/blocksds/core/libs/libnds/lib/libnds9.a(threads.c.o)
                0x02ff0000                cothread_irq_flags
 *(.sbss.*)
                0x02ff0004                        . = ALIGN (0x4)
                0x02ff0004                        __sbss_end = ABSOLUTE (.)

.bss            0x02015d04     0x8b18
                0x02015d04                        __bss_start = ABSOLUTE (.)
                0x02015d04                        __bss_start__ = ABSOLUTE (.)
 *(EXCLUDE_FILE(*.twl*) .dynbss)
 *(EXCLUDE_FILE(*.twl*) .gnu.linkonce.b*)
 *(EXCLUDE_FILE(*.twl*) .bss*)
 *fill*         0x02015d04        0x4 
 .bss.player    0x02015d08       0x24 build/test_repository/source/main.c.o
                0x02015d08                player
 .bss.NF_ROOTFOLDER
                0x02015d2c       0x40 /opt/blocksds/external/nflib/lib/libnflib.a(nf_basic.c.o)
                0x02015d2c                NF_ROOTFOLDER
 *fill*         0x02015d6c        0x4 
 .bss.NF_CMAP   0x02015d70      0x300 /opt/blocksds/external/nflib/lib/libnflib.a(nf_collision.c.o)
                0x02015d70                NF_CMAP
 .bss.NF_TEXT   0x02016070       0x50 /opt/blocksds/external/nflib/lib/libnflib.a(nf_text.c.o)
                0x02016070                NF_TEXT
 .bss.NF_MAPBLOCKS
                0x020160c0       0x20 /opt/blocksds/external/nflib/lib/libnflib.a(nf_tiledbg.c.o)
                0x020160c0                NF_MAPBLOCKS
 .bss.NF_TILEBLOCKS
                0x020160e0       0x10 /opt/blocksds/external/nflib/lib/libnflib.a(nf_tiledbg.c.o)
                0x020160e0                NF_TILEBLOCKS
 .bss.NF_EXBGPAL
                0x020160f0      0x600 /opt/blocksds/external/nflib/lib/libnflib.a(nf_tiledbg.c.o)
                0x020160f0                NF_EXBGPAL
 .bss.NF_TILEDBG_LAYERS
                0x020166f0       0x90 /opt/blocksds/external/nflib/lib/libnflib.a(nf_tiledbg.c.o)
                0x020166f0                NF_TILEDBG_LAYERS
 .bss.NF_TILEDBG
                0x02016780      0xd00 /opt/blocksds/external/nflib/lib/libnflib.a(nf_tiledbg.c.o)
                0x02016780                NF_TILEDBG
 .bss.NF_BUFFER_BGPAL
                0x02017480      0x100 /opt/blocksds/external/nflib/lib/libnflib.a(nf_tiledbg.c.o)
                0x02017480                NF_BUFFER_BGPAL
 .bss.NF_BUFFER_BGMAP
                0x02017580      0x100 /opt/blocksds/external/nflib/lib/libnflib.a(nf_tiledbg.c.o)
                0x02017580                NF_BUFFER_BGMAP
 .bss.NF_BUFFER_BGTILES
                0x02017680      0x100 /opt/blocksds/external/nflib/lib/libnflib.a(nf_tiledbg.c.o)
                0x02017680                NF_BUFFER_BGTILES
 .bss.NF_BANKS_MAPS
                0x02017780        0x2 /opt/blocksds/external/nflib/lib/libnflib.a(nf_tiledbg.c.o)
                0x02017780                NF_BANKS_MAPS
 *fill*         0x02017782        0x2 
 .bss.NF_BANKS_TILES
                0x02017784        0x2 /opt/blocksds/external/nflib/lib/libnflib.a(nf_tiledbg.c.o)
                0x02017784                NF_BANKS_TILES
 *fill*         0x02017786        0x2 
 .bss.NF_SPRVRAM
                0x02017788      0x838 /opt/blocksds/external/nflib/lib/libnflib.a(nf_sprite256.c.o)
                0x02017788                NF_SPRVRAM
 .bss.NF_SPRITEOAM
                0x02017fc0     0x2400 /opt/blocksds/external/nflib/lib/libnflib.a(nf_sprite256.c.o)
                0x02017fc0                NF_SPRITEOAM
 .bss.NF_SPRPALSLOT
                0x0201a3c0       0x40 /opt/blocksds/external/nflib/lib/libnflib.a(nf_sprite256.c.o)
                0x0201a3c0                NF_SPRPALSLOT
 .bss.NF_SPR256VRAM
                0x0201a400     0x1400 /opt/blocksds/external/nflib/lib/libnflib.a(nf_sprite256.c.o)
                0x0201a400                NF_SPR256VRAM
 .bss.NF_SPR256PAL
                0x0201b800      0x200 /opt/blocksds/external/nflib/lib/libnflib.a(nf_sprite256.c.o)
                0x0201b800                NF_SPR256PAL
 .bss.NF_SPR256GFX
                0x0201ba00      0xc00 /opt/blocksds/external/nflib/lib/libnflib.a(nf_sprite256.c.o)
                0x0201ba00                NF_SPR256GFX
 .bss.NF_BUFFER_SPR256PAL
                0x0201c600      0x100 /opt/blocksds/external/nflib/lib/libnflib.a(nf_sprite256.c.o)
                0x0201c600                NF_BUFFER_SPR256PAL
 .bss.NF_BUFFER_SPR256GFX
                0x0201c700      0x400 /opt/blocksds/external/nflib/lib/libnflib.a(nf_sprite256.c.o)
                0x0201c700                NF_BUFFER_SPR256GFX
 .bss.arm7console
                0x0201cb00        0x4 /opt/blocksds/core/libs/libnds/lib/libnds9.a(console.c.o)
 .bss.arm7con   0x0201cb04        0x4 /opt/blocksds/core/libs/libnds/lib/libnds9.a(console.c.o)
 .bss.libnds_stderr_write
                0x0201cb08        0x4 /opt/blocksds/core/libs/libnds/lib/libnds9.a(console.c.o)
                0x0201cb08                libnds_stderr_write
 .bss.libnds_stdout_write
                0x0201cb0c        0x4 /opt/blocksds/core/libs/libnds/lib/libnds9.a(console.c.o)
                0x0201cb0c                libnds_stdout_write
 .bss.currentCopy
                0x0201cb10       0x40 /opt/blocksds/core/libs/libnds/lib/libnds9.a(console.c.o)
 .bss.bgIsTextLut
                0x0201cb50        0x8 /opt/blocksds/core/libs/libnds/lib/libnds9.a(background.c.o)
                0x0201cb50                bgIsTextLut
 .bss.bgState   0x0201cb58      0x140 /opt/blocksds/core/libs/libnds/lib/libnds9.a(background.c.o)
                0x0201cb58                bgState
 .bss.OamMemory
                0x0201cc98      0x400 /opt/blocksds/core/libs/libnds/lib/libnds9.a(sprite.c.o)
                0x0201cc98                OamMemory
 .bss.OamMemorySub
                0x0201d098      0x400 /opt/blocksds/core/libs/libnds/lib/libnds9.a(sprite.c.o)
                0x0201d098                OamMemorySub
 .bss.punixTime
                0x0201d498        0x4 /opt/blocksds/core/libs/libnds/lib/libnds9.a(initSystem.c.o)
                0x0201d498                punixTime
 .bss.__debugger_unit
                0x0201d49c        0x1 /opt/blocksds/core/libs/libnds/lib/libnds9.a(initSystem.c.o)
                0x0201d49c                __debugger_unit
 .bss.__dsimode
                0x0201d49d        0x1 /opt/blocksds/core/libs/libnds/lib/libnds9.a(initSystem.c.o)
                0x0201d49d                __dsimode
 .bss.keysrepeat
                0x0201d49e        0x2 /opt/blocksds/core/libs/libnds/lib/libnds9.a(keys.c.o)
 .bss.keysold   0x0201d4a0        0x2 /opt/blocksds/core/libs/libnds/lib/libnds9.a(keys.c.o)
 .bss.keys      0x0201d4a2        0x2 /opt/blocksds/core/libs/libnds/lib/libnds9.a(keys.c.o)
 .bss.latchedTouchPosition
                0x0201d4a4        0xc /opt/blocksds/core/libs/libnds/lib/libnds9.a(keys.c.o)
 .bss.receivedTouchPosition
                0x0201d4b0        0xc /opt/blocksds/core/libs/libnds/lib/libnds9.a(keys.c.o)
 .bss.SDcallback
                0x0201d4bc        0x4 /opt/blocksds/core/libs/libnds/lib/libnds9.a(system.c.o)
 .bss.nitrofs_local
                0x0201d4c0       0x10 /opt/blocksds/core/libs/libnds/lib/libnds9.a(nitrofs.c.o)
 .bss.shown.0   0x0201d4d0        0x4 /opt/blocksds/core/libs/libnds/lib/libnds9.a(iob.c.o)
 .bss.stderr_buf_len
                0x0201d4d4        0x2 /opt/blocksds/core/libs/libnds/lib/libnds9.a(iob.c.o)
 .bss.stdout_buf_len
                0x0201d4d6        0x2 /opt/blocksds/core/libs/libnds/lib/libnds9.a(iob.c.o)
 .bss.stderr_buf
                0x0201d4d8       0x11 /opt/blocksds/core/libs/libnds/lib/libnds9.a(iob.c.o)
 *fill*         0x0201d4e9        0x3 
 .bss.stdout_buf
                0x0201d4ec       0x11 /opt/blocksds/core/libs/libnds/lib/libnds9.a(iob.c.o)
 .bss.stdin_buf_empty
                0x0201d4fd        0x1 /opt/blocksds/core/libs/libnds/lib/libnds9.a(iob.c.o)
                0x0201d4fd                stdin_buf_empty
 .bss.stdin_buf_right
                0x0201d4fe        0x2 /opt/blocksds/core/libs/libnds/lib/libnds9.a(iob.c.o)
 .bss.stdin_buf_left
                0x0201d500        0x2 /opt/blocksds/core/libs/libnds/lib/libnds9.a(iob.c.o)
 *fill*         0x0201d502        0x2 
 .bss.stdin_buf
                0x0201d504       0x80 /opt/blocksds/core/libs/libnds/lib/libnds9.a(iob.c.o)
 .bss.has_been_called.0
                0x0201d584        0x1 /opt/blocksds/core/libs/libnds/lib/libnds9.a(fatfs.c.o)
 .bss.fat_initialized
                0x0201d585        0x1 /opt/blocksds/core/libs/libnds/lib/libnds9.a(fatfs.c.o)
 *fill*         0x0201d586        0x2 
 .bss.fs_info   0x0201d588      0x478 /opt/blocksds/core/libs/libnds/lib/libnds9.a(fatfs.c.o)
 .bss.current_drive_is_nitrofs
                0x0201da00        0x1 /opt/blocksds/core/libs/libnds/lib/libnds9.a(filesystem.c.o)
                0x0201da00                current_drive_is_nitrofs
 *fill*         0x0201da01        0x3 
 .bss.usage_counter
                0x0201da04        0x4 /opt/blocksds/core/libs/libnds/lib/libnds9.a(cache.c.o)
 .bss.dldi_stub_space_sectors
                0x0201da08        0x4 /opt/blocksds/core/libs/libnds/lib/libnds9.a(cache.c.o)
 .bss.cache_num_sectors
                0x0201da0c        0x4 /opt/blocksds/core/libs/libnds/lib/libnds9.a(cache.c.o)
 .bss.cache_mem
                0x0201da10        0x4 /opt/blocksds/core/libs/libnds/lib/libnds9.a(cache.c.o)
 .bss.cache_entries
                0x0201da14        0x4 /opt/blocksds/core/libs/libnds/lib/libnds9.a(cache.c.o)
 .bss.main_args
                0x0201da18        0x8 /opt/blocksds/core/libs/libnds/lib/libnds9.a(threads.c.o)
 .bss.cothread_list
                0x0201da20       0x1c /opt/blocksds/core/libs/libnds/lib/libnds9.a(threads.c.o)
 .bss.cothread_active_thread
                0x0201da3c        0x4 /opt/blocksds/core/libs/libnds/lib/libnds9.a(threads.c.o)
 .bss.free_fn   0x0201da40        0x4 /opt/blocksds/core/libs/libnds/lib/libnds9.a(threads.c.o)
 .bss.exceptionMsg
                0x0201da44        0x4 /opt/blocksds/core/libs/libnds/lib/libnds9.a(exceptions.c.o)
                0x0201da44                exceptionMsg
 .bss.__lock___libc_recursive_mutex
                0x0201da48       0x10 /opt/blocksds/core/libs/libnds/lib/libnds9.a(locks.c.o)
                0x0201da48                __lock___libc_recursive_mutex
 .bss.locks     0x0201da58      0x210 /opt/blocksds/core/libs/libnds/lib/libnds9.a(locks.c.o)
 .bss.heap_start.0
                0x0201dc68        0x4 /opt/blocksds/core/libs/libnds/lib/libnds9.a(sbrk.c.o)
 .bss.fake_heap_start
                0x0201dc6c        0x4 /opt/blocksds/core/libs/libnds/lib/libnds9.a(sbrk.c.o)
                0x0201dc6c                fake_heap_start
 .bss.fake_heap_end
                0x0201dc70        0x4 /opt/blocksds/core/libs/libnds/lib/libnds9.a(sbrk.c.o)
                0x0201dc70                fake_heap_end
 .bss.fifo_mutex
                0x0201dc74       0x40 /opt/blocksds/core/libs/libnds/lib/libnds9.a(fifosystem.c.o)
 .bss.processing
                0x0201dcb4        0x4 /opt/blocksds/core/libs/libnds/lib/libnds9.a(fifosystem.c.o)
 .bss.fifo_datamsg_data
                0x0201dcb8       0x40 /opt/blocksds/core/libs/libnds/lib/libnds9.a(fifosystem.c.o)
 .bss.fifo_value32_data
                0x0201dcf8       0x40 /opt/blocksds/core/libs/libnds/lib/libnds9.a(fifosystem.c.o)
 .bss.fifo_address_data
                0x0201dd38       0x40 /opt/blocksds/core/libs/libnds/lib/libnds9.a(fifosystem.c.o)
 .bss.fifo_datamsg_func
                0x0201dd78       0x40 /opt/blocksds/core/libs/libnds/lib/libnds9.a(fifosystem.c.o)
 .bss.fifo_value32_func
                0x0201ddb8       0x40 /opt/blocksds/core/libs/libnds/lib/libnds9.a(fifosystem.c.o)
 .bss.fifo_address_func
                0x0201ddf8       0x40 /opt/blocksds/core/libs/libnds/lib/libnds9.a(fifosystem.c.o)
 .bss.fifo_value32_queue
                0x0201de38       0x40 /opt/blocksds/core/libs/libnds/lib/libnds9.a(fifosystem.c.o)
 .bss.fifo_data_queue
                0x0201de78       0x40 /opt/blocksds/core/libs/libnds/lib/libnds9.a(fifosystem.c.o)
 .bss.fifo_address_queue
                0x0201deb8       0x40 /opt/blocksds/core/libs/libnds/lib/libnds9.a(fifosystem.c.o)
 .bss.fifo_buffer
                0x0201def8      0x800 /opt/blocksds/core/libs/libnds/lib/libnds9.a(fifosystem.c.o)
 .bss.CurrVol   0x0201e6f8        0x1 /opt/blocksds/core/libs/libnds/lib/libnds9.a(ff.c.o)
 *fill*         0x0201e6f9        0x1 
 .bss.Fsid      0x0201e6fa        0x2 /opt/blocksds/core/libs/libnds/lib/libnds9.a(ff.c.o)
 .bss.FatFs     0x0201e6fc        0x8 /opt/blocksds/core/libs/libnds/lib/libnds9.a(ff.c.o)
 .bss.pressed.0
                0x0201e704        0x4 /opt/blocksds/core/libs/libnds/lib/libnds9.a(keyboard.c.o)
 .bss.oldKeys.1
                0x0201e708        0x4 /opt/blocksds/core/libs/libnds/lib/libnds9.a(keyboard.c.o)
 .bss.curKeyboard
                0x0201e70c       0x40 /opt/blocksds/core/libs/libnds/lib/libnds9.a(keyboard.c.o)
 .bss.curKeyboardOriginal
                0x0201e74c        0x4 /opt/blocksds/core/libs/libnds/lib/libnds9.a(keyboard.c.o)
 .bss.keyboardLoaded
                0x0201e750        0x1 /opt/blocksds/core/libs/libnds/lib/libnds9.a(keyboard.c.o)
 *fill*         0x0201e751        0x3 
 .bss.Mutex     0x0201e754        0xc /opt/blocksds/core/libs/libnds/lib/libnds9.a(ffsystem.c.o)
 .bss.fs_io     0x0201e760        0x8 /opt/blocksds/core/libs/libnds/lib/libnds9.a(diskio.c.o)
 .bss.fs_initialized
                0x0201e768        0x2 /opt/blocksds/core/libs/libnds/lib/libnds9.a(diskio.c.o)
 *fill*         0x0201e76a        0x2 
 .bss           0x0201e76c       0x34 /opt/wonderful/toolchain/gcc-arm-none-eabi/lib/gcc/arm-none-eabi/14.2.0/../../../../arm-none-eabi/lib/thumb/arm946e-s/libc.a(malloc-malloc.c.o)
                0x0201e76c                __malloc_top_pad
                0x0201e770                __malloc_current_mallinfo
                0x0201e798                __malloc_max_sbrked_mem
                0x0201e79c                __malloc_max_total_mem
 .bss           0x0201e7a0       0x18 /opt/wonderful/toolchain/gcc-arm-none-eabi/lib/gcc/arm-none-eabi/14.2.0/../../../../arm-none-eabi/lib/thumb/arm946e-s/libc.a(libc_time_tzset.c.o)
 .bss           0x0201e7b8        0x8 /opt/wonderful/toolchain/gcc-arm-none-eabi/lib/gcc/arm-none-eabi/14.2.0/../../../../arm-none-eabi/lib/thumb/arm946e-s/libc.a(libc_time_tzvars.c.o)
                0x0201e7b8                _timezone
                0x0201e7bc                _daylight
 .bss           0x0201e7c0       0x58 /opt/wonderful/toolchain/gcc-arm-none-eabi/lib/gcc/arm-none-eabi/14.2.0/../../../../arm-none-eabi/lib/thumb/arm946e-s/libc.a(libc_time_gettzinfo.c.o)
 .bss           0x0201e818        0x4 /opt/wonderful/toolchain/gcc-arm-none-eabi/lib/gcc/arm-none-eabi/14.2.0/../../../../arm-none-eabi/lib/thumb/arm946e-s/libc.a(libc_stdlib_environ.c.o)
 *(EXCLUDE_FILE(*.twl*) COMMON)
                0x0201e81c                        . = ALIGN (0x4)
                0x0201e81c                        __bss_end__ = ABSOLUTE (.)

.noinit         0x0201e81c        0x0
                0x0201e81c                        __noinit_start = ABSOLUTE (.)
 *(EXCLUDE_FILE(*.twl*) .noinit)
 *(EXCLUDE_FILE(*.twl*) .noinit.*)
 *(EXCLUDE_FILE(*.twl*) .gnu.linkonce.n.*)
                0x0201e81c                        . = ALIGN (0x4)
                0x0201e81c                        __noinit_end = ABSOLUTE (.)

.tls            0x0201e81c       0x28
                0x0201e81c                        __tls_start = ABSOLUTE (.)
                0x0201e844                        . = ((. + __tdata_size) + __tbss_size)
 *fill*         0x0201e81c       0x28 
                0x0201e844                        __tls_end = ABSOLUTE (.)
                0x0201e844                        __end__ = ABSOLUTE (.)
                0x00000028                        __tls_size = (__tls_end - __tls_start)

.twl            0x0201e844      0x224 load address 0x02400000
                0x02400000                        __arm9i_lma__ = LOADADDR (.twl)
                0x0201e844                        __arm9i_start__ = ABSOLUTE (.)
 *(.twl)
 *(.twl.text .twl.text.*)
 *(.twl.rodata .twl.rodata.*)
 *(.twl.data .twl.data.*)
 *.twl*(.text .stub .text.* .gnu.linkonce.t.*)
 .text.sdmmc_ClearStatus
                0x0201e844        0x4 /opt/blocksds/core/libs/libnds/lib/libnds9.a(sdmmc.twl.c.o)
                0x0201e844                sdmmc_ClearStatus
 .text.sdmmc_Shutdown
                0x0201e848        0x4 /opt/blocksds/core/libs/libnds/lib/libnds9.a(sdmmc.twl.c.o)
                0x0201e848                sdmmc_Shutdown
 .text.sdmmc_fifo_sectors
                0x0201e84c       0x9c /opt/blocksds/core/libs/libnds/lib/libnds9.a(sdmmc.twl.c.o)
 .text.sdmmc_ReadSectors
                0x0201e8e8       0x20 /opt/blocksds/core/libs/libnds/lib/libnds9.a(sdmmc.twl.c.o)
                0x0201e8e8                sdmmc_ReadSectors
 .text.sdmmc_WriteSectors
                0x0201e908       0x20 /opt/blocksds/core/libs/libnds/lib/libnds9.a(sdmmc.twl.c.o)
                0x0201e908                sdmmc_WriteSectors
 .text.sdmmc_IsInserted
                0x0201e928       0x40 /opt/blocksds/core/libs/libnds/lib/libnds9.a(sdmmc.twl.c.o)
                0x0201e928                sdmmc_IsInserted
 .text.sdmmc_Startup
                0x0201e968       0x74 /opt/blocksds/core/libs/libnds/lib/libnds9.a(sdmmc.twl.c.o)
                0x0201e968                sdmmc_Startup
 .text.sdmmc_GetDiskStatus
                0x0201e9dc       0x38 /opt/blocksds/core/libs/libnds/lib/libnds9.a(sdmmc.twl.c.o)
                0x0201e9dc                sdmmc_GetDiskStatus
 .text.get_io_dsisd
                0x0201ea14       0x24 /opt/blocksds/core/libs/libnds/lib/libnds9.a(sdmmc.twl.c.o)
                0x0201ea14                get_io_dsisd
 .text.get_io_dsisd.__stub
                0x0201ea38       0x10 linker stubs
 *.twl*(.rodata)
 *.twl*(.roda)
 *.twl*(.rodata.*)
 .rodata.__io_dsisd
                0x0201ea48       0x20 /opt/blocksds/core/libs/libnds/lib/libnds9.a(sdmmc.twl.c.o)
                0x0201ea48                __io_dsisd
 *.twl*(.data)
 *.twl*(.data.*)
 *.twl*(.gnu.linkonce.d*)
                0x0201ea68                        __arm9i_end__ = ABSOLUTE (.)

.rel.dyn        0x0201ea68        0x0 load address 0x02400224
 .rel.iplt      0x0201ea68        0x0 /opt/blocksds/core/sys/crts/ds_arm9_crt0.o

.twl_bss        0x0201ea68        0x0
                0x0201ea68                        __twl_bss_start__ = ABSOLUTE (.)
 *(.twl_bss .twl_bss.*)
 *(.twl.bss .twl.bss.*)
 *.twl*(.dynbss)
 *.twl*(.gnu.linkonce.b*)
 *.twl*(.bss*)
 *.twl*(COMMON)
                0x0201ea68                        . = ALIGN (0x4)
                0x0201ea68                        __twl_bss_end__ = ABSOLUTE (.)

.twl_noinit     0x0201ea68        0x0
                0x0201ea68                        __twl_noinit_start__ = ABSOLUTE (.)
 *(.twl_noinit .twl_noinit.*)
 *(.twl.noinit .twl.noinit.*)
 *.twl*(.noinit)
 *.twl*(.noinit.*)
 *.twl*(.gnu.linkonce.n.*)
                0x0201ea68                        . = ALIGN (0x4)
                0x0201ea68                        __twl_noinit_end__ = ABSOLUTE (.)
                0x0201ea68                        __twl_end__ = ABSOLUTE (.)
                0x0000021c                        __itcm_size = (__itcm_end - __itcm_start)
                0x00000000                        __dtcm_size = (__dtcm_end - __dtcm_data_start)
                0x00000224                        __arm9i_size__ = (__arm9i_end__ - __arm9i_start__)
                0x00008b18                        __bss_size__ = (__bss_end__ - __bss_start__)
                0x00000004                        __sbss_size = (__sbss_end - __sbss_start)
                0x00000000                        __twl_bss_size__ = (__twl_bss_end__ - __twl_bss_start__)

.stab
 *(.stab)

.stabstr
 *(.stabstr)

.stab.excl
 *(.stab.excl)

.stab.exclstr
 *(.stab.exclstr)

.stab.index
 *(.stab.index)

.stab.indexstr
 *(.stab.indexstr)

.comment        0x00000000       0x22
 *(.comment)
 .comment       0x00000000       0x22 build/test_repository/source/player/player.c.o
                                 0x23 (size before relaxing)
 .comment       0x00000022       0x23 build/test_repository/source/main.c.o
 .comment       0x00000022       0x23 /opt/blocksds/external/nflib/lib/libnflib.a(nf_basic.c.o)
 .comment       0x00000022       0x23 /opt/blocksds/external/nflib/lib/libnflib.a(nf_collision.c.o)
 .comment       0x00000022       0x23 /opt/blocksds/external/nflib/lib/libnflib.a(nf_text.c.o)
 .comment       0x00000022       0x23 /opt/blocksds/external/nflib/lib/libnflib.a(nf_tiledbg.c.o)
 .comment       0x00000022       0x23 /opt/blocksds/external/nflib/lib/libnflib.a(nf_2d.c.o)
 .comment       0x00000022       0x23 /opt/blocksds/external/nflib/lib/libnflib.a(nf_sprite256.c.o)
 .comment       0x00000022       0x23 /opt/blocksds/core/libs/libnds/lib/libnds9.a(console.c.o)
 .comment       0x00000022       0x23 /opt/blocksds/core/libs/libnds/lib/libnds9.a(background.c.o)
 .comment       0x00000022       0x23 /opt/blocksds/core/libs/libnds/lib/libnds9.a(sprite.c.o)
 .comment       0x00000022       0x23 /opt/blocksds/core/libs/libnds/lib/libnds9.a(video.c.o)
 .comment       0x00000022       0x23 /opt/blocksds/core/libs/libnds/lib/libnds9.a(cache.c.o)
 .comment       0x00000022       0x23 /opt/blocksds/core/libs/libnds/lib/libnds9.a(initSystem.c.o)
 .comment       0x00000022       0x23 /opt/blocksds/core/libs/libnds/lib/libnds9.a(keys.c.o)
 .comment       0x00000022       0x23 /opt/blocksds/core/libs/libnds/lib/libnds9.a(system.c.o)
 .comment       0x00000022       0x23 /opt/blocksds/core/libs/libnds/lib/libnds9.a(securearea.c.o)
 .comment       0x00000022       0x23 /opt/blocksds/core/libs/libnds/lib/libnds9.a(exceptions.c.o)
 .comment       0x00000022       0x23 /opt/blocksds/core/libs/libnds/lib/libnds9.a(chdir.c.o)
 .comment       0x00000022       0x23 /opt/blocksds/core/libs/libnds/lib/libnds9.a(nitrofs.c.o)
 .comment       0x00000022       0x23 /opt/blocksds/core/libs/libnds/lib/libnds9.a(iob.c.o)
 .comment       0x00000022       0x23 /opt/blocksds/core/libs/libnds/lib/libnds9.a(fatfs.c.o)
 .comment       0x00000022       0x23 /opt/blocksds/core/libs/libnds/lib/libnds9.a(crt0_argv.c.o)
 .comment       0x00000022       0x23 /opt/blocksds/core/libs/libnds/lib/libnds9.a(filesystem.c.o)
 .comment       0x00000022       0x23 /opt/blocksds/core/libs/libnds/lib/libnds9.a(cache.c.o)
 .comment       0x00000022       0x23 /opt/blocksds/core/libs/libnds/lib/libnds9.a(threads.c.o)
 .comment       0x00000022       0x23 /opt/blocksds/core/libs/libnds/lib/libnds9.a(interrupts.c.o)
 .comment       0x00000022       0x23 /opt/blocksds/core/libs/libnds/lib/libnds9.a(exceptions.c.o)
 .comment       0x00000022       0x23 /opt/blocksds/core/libs/libnds/lib/libnds9.a(coroutine.c.o)
 .comment       0x00000022       0x23 /opt/blocksds/core/libs/libnds/lib/libnds9.a(card.c.o)
 .comment       0x00000022       0x23 /opt/blocksds/core/libs/libnds/lib/libnds9.a(exit.c.o)
 .comment       0x00000022       0x23 /opt/blocksds/core/libs/libnds/lib/libnds9.a(locks.c.o)
 .comment       0x00000022       0x23 /opt/blocksds/core/libs/libnds/lib/libnds9.a(sbrk.c.o)
 .comment       0x00000022       0x23 /opt/blocksds/core/libs/libnds/lib/libnds9.a(fifosystem.c.o)
 .comment       0x00000022       0x23 /opt/blocksds/core/libs/libnds/lib/libnds9.a(ff.c.o)
 .comment       0x00000022       0x23 /opt/blocksds/core/libs/libnds/lib/libnds9.a(ffunicode.c.o)
 .comment       0x00000022       0x23 /opt/blocksds/core/libs/libnds/lib/libnds9.a(default_font.png.o)
 .comment       0x00000022       0x23 /opt/blocksds/core/libs/libnds/lib/libnds9.a(card.c.o)
 .comment       0x00000022       0x23 /opt/blocksds/core/libs/libnds/lib/libnds9.a(dldi.c.o)
 .comment       0x00000022       0x23 /opt/blocksds/core/libs/libnds/lib/libnds9.a(keyboard.c.o)
 .comment       0x00000022       0x23 /opt/blocksds/core/libs/libnds/lib/libnds9.a(trig.c.o)
 .comment       0x00000022       0x23 /opt/blocksds/core/libs/libnds/lib/libnds9.a(sprite_alloc.c.o)
 .comment       0x00000022       0x23 /opt/blocksds/core/libs/libnds/lib/libnds9.a(ffsystem.c.o)
 .comment       0x00000022       0x23 /opt/blocksds/core/libs/libnds/lib/libnds9.a(diskio.c.o)
 .comment       0x00000022       0x23 /opt/blocksds/core/libs/libnds/lib/libnds9.a(sdmmc.twl.c.o)
 .comment       0x00000022       0x23 /opt/wonderful/toolchain/gcc-arm-none-eabi/lib/gcc/arm-none-eabi/14.2.0/../../../../arm-none-eabi/lib/thumb/arm946e-s/libc.a(malloc-calloc.c.o)
 .comment       0x00000022       0x23 /opt/wonderful/toolchain/gcc-arm-none-eabi/lib/gcc/arm-none-eabi/14.2.0/../../../../arm-none-eabi/lib/thumb/arm946e-s/libc.a(malloc-free.c.o)
 .comment       0x00000022       0x23 /opt/wonderful/toolchain/gcc-arm-none-eabi/lib/gcc/arm-none-eabi/14.2.0/../../../../arm-none-eabi/lib/thumb/arm946e-s/libc.a(malloc-malloc.c.o)
 .comment       0x00000022       0x23 /opt/wonderful/toolchain/gcc-arm-none-eabi/lib/gcc/arm-none-eabi/14.2.0/../../../../arm-none-eabi/lib/thumb/arm946e-s/libc.a(malloc-realloc.c.o)
 .comment       0x00000022       0x23 /opt/wonderful/toolchain/gcc-arm-none-eabi/lib/gcc/arm-none-eabi/14.2.0/../../../../arm-none-eabi/lib/thumb/arm946e-s/libc.a(libc_errno_errno.c.o)
 .comment       0x00000022       0x23 /opt/wonderful/toolchain/gcc-arm-none-eabi/lib/gcc/arm-none-eabi/14.2.0/../../../../arm-none-eabi/lib/thumb/arm946e-s/libc.a(libc_misc_init.c.o)
 .comment       0x00000022       0x23 /opt/wonderful/toolchain/gcc-arm-none-eabi/lib/gcc/arm-none-eabi/14.2.0/../../../../arm-none-eabi/lib/thumb/arm946e-s/libc.a(libc_stdlib_pico-exit.c.o)
 .comment       0x00000022       0x23 /opt/wonderful/toolchain/gcc-arm-none-eabi/lib/gcc/arm-none-eabi/14.2.0/../../../../arm-none-eabi/lib/thumb/arm946e-s/libc.a(libc_string_memcmp.c.o)
 .comment       0x00000022       0x23 /opt/wonderful/toolchain/gcc-arm-none-eabi/lib/gcc/arm-none-eabi/14.2.0/../../../../arm-none-eabi/lib/thumb/arm946e-s/libc.a(libc_string_strchr.c.o)
 .comment       0x00000022       0x23 /opt/wonderful/toolchain/gcc-arm-none-eabi/lib/gcc/arm-none-eabi/14.2.0/../../../../arm-none-eabi/lib/thumb/arm946e-s/libc.a(libc_string_strdup.c.o)
 .comment       0x00000022       0x23 /opt/wonderful/toolchain/gcc-arm-none-eabi/lib/gcc/arm-none-eabi/14.2.0/../../../../arm-none-eabi/lib/thumb/arm946e-s/libc.a(libc_string_strncmp.c.o)
 .comment       0x00000022       0x23 /opt/wonderful/toolchain/gcc-arm-none-eabi/lib/gcc/arm-none-eabi/14.2.0/../../../../arm-none-eabi/lib/thumb/arm946e-s/libc.a(libc_string_strstr.c.o)
 .comment       0x00000022       0x23 /opt/wonderful/toolchain/gcc-arm-none-eabi/lib/gcc/arm-none-eabi/14.2.0/../../../../arm-none-eabi/lib/thumb/arm946e-s/libc.a(libc_time_lcltime.c.o)
 .comment       0x00000022       0x23 /opt/wonderful/toolchain/gcc-arm-none-eabi/lib/gcc/arm-none-eabi/14.2.0/../../../../arm-none-eabi/lib/thumb/arm946e-s/libc.a(libc_time_lcltime_r.c.o)
 .comment       0x00000022       0x23 /opt/wonderful/toolchain/gcc-arm-none-eabi/lib/gcc/arm-none-eabi/14.2.0/../../../../arm-none-eabi/lib/thumb/arm946e-s/libc.a(libc_time_lcltime_buf.c.o)
 .comment       0x00000022       0x23 /opt/wonderful/toolchain/gcc-arm-none-eabi/lib/gcc/arm-none-eabi/14.2.0/../../../../arm-none-eabi/lib/thumb/arm946e-s/libc.a(libc_time_month_lengths.c.o)
 .comment       0x00000022       0x23 /opt/wonderful/toolchain/gcc-arm-none-eabi/lib/gcc/arm-none-eabi/14.2.0/../../../../arm-none-eabi/lib/thumb/arm946e-s/libc.a(libc_time_time.c.o)
 .comment       0x00000022       0x23 /opt/wonderful/toolchain/gcc-arm-none-eabi/lib/gcc/arm-none-eabi/14.2.0/../../../../arm-none-eabi/lib/thumb/arm946e-s/libc.a(libc_time_tzcalc_limits.c.o)
 .comment       0x00000022       0x23 /opt/wonderful/toolchain/gcc-arm-none-eabi/lib/gcc/arm-none-eabi/14.2.0/../../../../arm-none-eabi/lib/thumb/arm946e-s/libc.a(libc_time_tzset.c.o)
 .comment       0x00000022       0x23 /opt/wonderful/toolchain/gcc-arm-none-eabi/lib/gcc/arm-none-eabi/14.2.0/../../../../arm-none-eabi/lib/thumb/arm946e-s/libc.a(libc_time_tzvars.c.o)
 .comment       0x00000022       0x23 /opt/wonderful/toolchain/gcc-arm-none-eabi/lib/gcc/arm-none-eabi/14.2.0/../../../../arm-none-eabi/lib/thumb/arm946e-s/libc.a(libc_tinystdio_fclose.c.o)
 .comment       0x00000022       0x23 /opt/wonderful/toolchain/gcc-arm-none-eabi/lib/gcc/arm-none-eabi/14.2.0/../../../../arm-none-eabi/lib/thumb/arm946e-s/libc.a(libc_tinystdio_fflush.c.o)
 .comment       0x00000022       0x23 /opt/wonderful/toolchain/gcc-arm-none-eabi/lib/gcc/arm-none-eabi/14.2.0/../../../../arm-none-eabi/lib/thumb/arm946e-s/libc.a(libc_tinystdio_fileno.c.o)
 .comment       0x00000022       0x23 /opt/wonderful/toolchain/gcc-arm-none-eabi/lib/gcc/arm-none-eabi/14.2.0/../../../../arm-none-eabi/lib/thumb/arm946e-s/libc.a(libc_tinystdio_fread.c.o)
 .comment       0x00000022       0x23 /opt/wonderful/toolchain/gcc-arm-none-eabi/lib/gcc/arm-none-eabi/14.2.0/../../../../arm-none-eabi/lib/thumb/arm946e-s/libc.a(libc_tinystdio_fseek.c.o)
 .comment       0x00000022       0x23 /opt/wonderful/toolchain/gcc-arm-none-eabi/lib/gcc/arm-none-eabi/14.2.0/../../../../arm-none-eabi/lib/thumb/arm946e-s/libc.a(libc_tinystdio_ftell.c.o)
 .comment       0x00000022       0x23 /opt/wonderful/toolchain/gcc-arm-none-eabi/lib/gcc/arm-none-eabi/14.2.0/../../../../arm-none-eabi/lib/thumb/arm946e-s/libc.a(libc_tinystdio_printf.c.o)
 .comment       0x00000022       0x23 /opt/wonderful/toolchain/gcc-arm-none-eabi/lib/gcc/arm-none-eabi/14.2.0/../../../../arm-none-eabi/lib/thumb/arm946e-s/libc.a(libc_tinystdio_putchar.c.o)
 .comment       0x00000022       0x23 /opt/wonderful/toolchain/gcc-arm-none-eabi/lib/gcc/arm-none-eabi/14.2.0/../../../../arm-none-eabi/lib/thumb/arm946e-s/libc.a(libc_tinystdio_puts.c.o)
 .comment       0x00000022       0x23 /opt/wonderful/toolchain/gcc-arm-none-eabi/lib/gcc/arm-none-eabi/14.2.0/../../../../arm-none-eabi/lib/thumb/arm946e-s/libc.a(libc_tinystdio_rewind.c.o)
 .comment       0x00000022       0x23 /opt/wonderful/toolchain/gcc-arm-none-eabi/lib/gcc/arm-none-eabi/14.2.0/../../../../arm-none-eabi/lib/thumb/arm946e-s/libc.a(libc_tinystdio_setvbuf.c.o)
 .comment       0x00000022       0x23 /opt/wonderful/toolchain/gcc-arm-none-eabi/lib/gcc/arm-none-eabi/14.2.0/../../../../arm-none-eabi/lib/thumb/arm946e-s/libc.a(libc_tinystdio_snprintf.c.o)
 .comment       0x00000022       0x23 /opt/wonderful/toolchain/gcc-arm-none-eabi/lib/gcc/arm-none-eabi/14.2.0/../../../../arm-none-eabi/lib/thumb/arm946e-s/libc.a(libc_tinystdio_sscanf.c.o)
 .comment       0x00000022       0x23 /opt/wonderful/toolchain/gcc-arm-none-eabi/lib/gcc/arm-none-eabi/14.2.0/../../../../arm-none-eabi/lib/thumb/arm946e-s/libc.a(libc_tinystdio_strtoul.c.o)
 .comment       0x00000022       0x23 /opt/wonderful/toolchain/gcc-arm-none-eabi/lib/gcc/arm-none-eabi/14.2.0/../../../../arm-none-eabi/lib/thumb/arm946e-s/libc.a(libc_tinystdio_vfprintf.c.o)
 .comment       0x00000022       0x23 /opt/wonderful/toolchain/gcc-arm-none-eabi/lib/gcc/arm-none-eabi/14.2.0/../../../../arm-none-eabi/lib/thumb/arm946e-s/libc.a(libc_tinystdio_vfscanf.c.o)
 .comment       0x00000022       0x23 /opt/wonderful/toolchain/gcc-arm-none-eabi/lib/gcc/arm-none-eabi/14.2.0/../../../../arm-none-eabi/lib/thumb/arm946e-s/libc.a(libc_tinystdio_atod_ryu.c.o)
 .comment       0x00000022       0x23 /opt/wonderful/toolchain/gcc-arm-none-eabi/lib/gcc/arm-none-eabi/14.2.0/../../../../arm-none-eabi/lib/thumb/arm946e-s/libc.a(libc_tinystdio_atof_ryu.c.o)
 .comment       0x00000022       0x23 /opt/wonderful/toolchain/gcc-arm-none-eabi/lib/gcc/arm-none-eabi/14.2.0/../../../../arm-none-eabi/lib/thumb/arm946e-s/libc.a(libc_tinystdio_dtoa_ryu.c.o)
 .comment       0x00000022       0x23 /opt/wonderful/toolchain/gcc-arm-none-eabi/lib/gcc/arm-none-eabi/14.2.0/../../../../arm-none-eabi/lib/thumb/arm946e-s/libc.a(libc_tinystdio_ryu_divpow2.c.o)
 .comment       0x00000022       0x23 /opt/wonderful/toolchain/gcc-arm-none-eabi/lib/gcc/arm-none-eabi/14.2.0/../../../../arm-none-eabi/lib/thumb/arm946e-s/libc.a(libc_tinystdio_ryu_log10.c.o)
 .comment       0x00000022       0x23 /opt/wonderful/toolchain/gcc-arm-none-eabi/lib/gcc/arm-none-eabi/14.2.0/../../../../arm-none-eabi/lib/thumb/arm946e-s/libc.a(libc_tinystdio_ryu_log2pow5.c.o)
 .comment       0x00000022       0x23 /opt/wonderful/toolchain/gcc-arm-none-eabi/lib/gcc/arm-none-eabi/14.2.0/../../../../arm-none-eabi/lib/thumb/arm946e-s/libc.a(libc_tinystdio_ryu_pow5bits.c.o)
 .comment       0x00000022       0x23 /opt/wonderful/toolchain/gcc-arm-none-eabi/lib/gcc/arm-none-eabi/14.2.0/../../../../arm-none-eabi/lib/thumb/arm946e-s/libc.a(libc_tinystdio_ryu_table.c.o)
 .comment       0x00000022       0x23 /opt/wonderful/toolchain/gcc-arm-none-eabi/lib/gcc/arm-none-eabi/14.2.0/../../../../arm-none-eabi/lib/thumb/arm946e-s/libc.a(libc_tinystdio_ryu_umul128.c.o)
 .comment       0x00000022       0x23 /opt/wonderful/toolchain/gcc-arm-none-eabi/lib/gcc/arm-none-eabi/14.2.0/../../../../arm-none-eabi/lib/thumb/arm946e-s/libc.a(libc_tinystdio_exchange.c.o)
 .comment       0x00000022       0x23 /opt/wonderful/toolchain/gcc-arm-none-eabi/lib/gcc/arm-none-eabi/14.2.0/../../../../arm-none-eabi/lib/thumb/arm946e-s/libc.a(libc_tinystdio_fdopen.c.o)
 .comment       0x00000022       0x23 /opt/wonderful/toolchain/gcc-arm-none-eabi/lib/gcc/arm-none-eabi/14.2.0/../../../../arm-none-eabi/lib/thumb/arm946e-s/libc.a(libc_tinystdio_fopen.c.o)
 .comment       0x00000022       0x23 /opt/wonderful/toolchain/gcc-arm-none-eabi/lib/gcc/arm-none-eabi/14.2.0/../../../../arm-none-eabi/lib/thumb/arm946e-s/libc.a(memmove.c.o)
 .comment       0x00000022       0x23 /opt/wonderful/toolchain/gcc-arm-none-eabi/lib/gcc/arm-none-eabi/14.2.0/../../../../arm-none-eabi/lib/thumb/arm946e-s/libc.a(libc_misc_fini.c.o)
 .comment       0x00000022       0x23 /opt/wonderful/toolchain/gcc-arm-none-eabi/lib/gcc/arm-none-eabi/14.2.0/../../../../arm-none-eabi/lib/thumb/arm946e-s/libc.a(libc_stdlib_getenv.c.o)
 .comment       0x00000022       0x23 /opt/wonderful/toolchain/gcc-arm-none-eabi/lib/gcc/arm-none-eabi/14.2.0/../../../../arm-none-eabi/lib/thumb/arm946e-s/libc.a(libc_stdlib_getenv_r.c.o)
 .comment       0x00000022       0x23 /opt/wonderful/toolchain/gcc-arm-none-eabi/lib/gcc/arm-none-eabi/14.2.0/../../../../arm-none-eabi/lib/thumb/arm946e-s/libc.a(libc_string_strnlen.c.o)
 .comment       0x00000022       0x23 /opt/wonderful/toolchain/gcc-arm-none-eabi/lib/gcc/arm-none-eabi/14.2.0/../../../../arm-none-eabi/lib/thumb/arm946e-s/libc.a(libc_time_gettzinfo.c.o)
 .comment       0x00000022       0x23 /opt/wonderful/toolchain/gcc-arm-none-eabi/lib/gcc/arm-none-eabi/14.2.0/../../../../arm-none-eabi/lib/thumb/arm946e-s/libc.a(libc_time_gmtime_r.c.o)
 .comment       0x00000022       0x23 /opt/wonderful/toolchain/gcc-arm-none-eabi/lib/gcc/arm-none-eabi/14.2.0/../../../../arm-none-eabi/lib/thumb/arm946e-s/libc.a(libc_tinystdio_atomic_load.c.o)
 .comment       0x00000022       0x23 /opt/wonderful/toolchain/gcc-arm-none-eabi/lib/gcc/arm-none-eabi/14.2.0/../../../../arm-none-eabi/lib/thumb/arm946e-s/libc.a(libc_tinystdio_bufio.c.o)
 .comment       0x00000022       0x23 /opt/wonderful/toolchain/gcc-arm-none-eabi/lib/gcc/arm-none-eabi/14.2.0/../../../../arm-none-eabi/lib/thumb/arm946e-s/libc.a(libc_tinystdio_dtox_engine.c.o)
 .comment       0x00000022       0x23 /opt/wonderful/toolchain/gcc-arm-none-eabi/lib/gcc/arm-none-eabi/14.2.0/../../../../arm-none-eabi/lib/thumb/arm946e-s/libc.a(libc_tinystdio_fgetc.c.o)
 .comment       0x00000022       0x23 /opt/wonderful/toolchain/gcc-arm-none-eabi/lib/gcc/arm-none-eabi/14.2.0/../../../../arm-none-eabi/lib/thumb/arm946e-s/libc.a(libc_tinystdio_filestrget.c.o)
 .comment       0x00000022       0x23 /opt/wonderful/toolchain/gcc-arm-none-eabi/lib/gcc/arm-none-eabi/14.2.0/../../../../arm-none-eabi/lib/thumb/arm946e-s/libc.a(libc_tinystdio_filestrput.c.o)
 .comment       0x00000022       0x23 /opt/wonderful/toolchain/gcc-arm-none-eabi/lib/gcc/arm-none-eabi/14.2.0/../../../../arm-none-eabi/lib/thumb/arm946e-s/libc.a(libc_tinystdio_fputc.c.o)
 .comment       0x00000022       0x23 /opt/wonderful/toolchain/gcc-arm-none-eabi/lib/gcc/arm-none-eabi/14.2.0/../../../../arm-none-eabi/lib/thumb/arm946e-s/libc.a(libc_tinystdio_fseeko.c.o)
 .comment       0x00000022       0x23 /opt/wonderful/toolchain/gcc-arm-none-eabi/lib/gcc/arm-none-eabi/14.2.0/../../../../arm-none-eabi/lib/thumb/arm946e-s/libc.a(libc_tinystdio_sflags.c.o)
 .comment       0x00000022       0x23 /opt/wonderful/toolchain/gcc-arm-none-eabi/lib/gcc/arm-none-eabi/14.2.0/../../../../arm-none-eabi/lib/thumb/arm946e-s/libc.a(libc_tinystdio_ungetc.c.o)
 .comment       0x00000022       0x23 /opt/wonderful/toolchain/gcc-arm-none-eabi/lib/gcc/arm-none-eabi/14.2.0/../../../../arm-none-eabi/lib/thumb/arm946e-s/libc.a(libc_tinystdio_compare_exchange.c.o)
 .comment       0x00000022       0x23 /opt/wonderful/toolchain/gcc-arm-none-eabi/lib/gcc/arm-none-eabi/14.2.0/../../../../arm-none-eabi/lib/thumb/arm946e-s/libc.a(libc_stdlib_environ.c.o)
 .comment       0x00000022       0x23 /opt/blocksds/core/libs/libnds/lib/libnds9.a(syscalls.c.o)
 .comment       0x00000022       0x23 /opt/wonderful/toolchain/gcc-arm-none-eabi/lib/gcc/arm-none-eabi/14.2.0/thumb/arm946e-s/libgcc.a(_muldi3.o)
 .comment       0x00000022       0x23 /opt/wonderful/toolchain/gcc-arm-none-eabi/lib/gcc/arm-none-eabi/14.2.0/thumb/arm946e-s/libgcc.a(_udivmoddi4.o)
 .comment       0x00000022       0x23 /opt/wonderful/toolchain/gcc-arm-none-eabi/lib/gcc/arm-none-eabi/14.2.0/thumb/arm946e-s/crtend.o

.gnu.build.attributes
 *(.gnu.build.attributes .gnu.build.attributes.*)

.debug
 *(.debug)

.line
 *(.line)

.debug_srcinfo
 *(.debug_srcinfo)

.debug_sfnames
 *(.debug_sfnames)

.debug_aranges  0x00000000      0xb68
 *(.debug_aranges)
 .debug_aranges
                0x00000000       0x20 /opt/wonderful/toolchain/gcc-arm-none-eabi/lib/gcc/arm-none-eabi/14.2.0/../../../../arm-none-eabi/lib/thumb/arm946e-s/libc.a(strcmp.S.o)
 .debug_aranges
                0x00000020       0x20 /opt/wonderful/toolchain/gcc-arm-none-eabi/lib/gcc/arm-none-eabi/14.2.0/../../../../arm-none-eabi/lib/thumb/arm946e-s/libc.a(strlen.S.o)
 .debug_aranges
                0x00000040       0x20 /opt/wonderful/toolchain/gcc-arm-none-eabi/lib/gcc/arm-none-eabi/14.2.0/../../../../arm-none-eabi/lib/thumb/arm946e-s/libc.a(malloc-calloc.c.o)
 .debug_aranges
                0x00000060       0x28 /opt/wonderful/toolchain/gcc-arm-none-eabi/lib/gcc/arm-none-eabi/14.2.0/../../../../arm-none-eabi/lib/thumb/arm946e-s/libc.a(malloc-free.c.o)
 .debug_aranges
                0x00000088       0x20 /opt/wonderful/toolchain/gcc-arm-none-eabi/lib/gcc/arm-none-eabi/14.2.0/../../../../arm-none-eabi/lib/thumb/arm946e-s/libc.a(malloc-malloc.c.o)
 .debug_aranges
                0x000000a8       0x20 /opt/wonderful/toolchain/gcc-arm-none-eabi/lib/gcc/arm-none-eabi/14.2.0/../../../../arm-none-eabi/lib/thumb/arm946e-s/libc.a(malloc-realloc.c.o)
 .debug_aranges
                0x000000c8       0x18 /opt/wonderful/toolchain/gcc-arm-none-eabi/lib/gcc/arm-none-eabi/14.2.0/../../../../arm-none-eabi/lib/thumb/arm946e-s/libc.a(libc_errno_errno.c.o)
 .debug_aranges
                0x000000e0       0x20 /opt/wonderful/toolchain/gcc-arm-none-eabi/lib/gcc/arm-none-eabi/14.2.0/../../../../arm-none-eabi/lib/thumb/arm946e-s/libc.a(libc_misc_init.c.o)
 .debug_aranges
                0x00000100       0x20 /opt/wonderful/toolchain/gcc-arm-none-eabi/lib/gcc/arm-none-eabi/14.2.0/../../../../arm-none-eabi/lib/thumb/arm946e-s/libc.a(libc_stdlib_pico-exit.c.o)
 .debug_aranges
                0x00000120       0x20 /opt/wonderful/toolchain/gcc-arm-none-eabi/lib/gcc/arm-none-eabi/14.2.0/../../../../arm-none-eabi/lib/thumb/arm946e-s/libc.a(libc_string_memcmp.c.o)
 .debug_aranges
                0x00000140       0x20 /opt/wonderful/toolchain/gcc-arm-none-eabi/lib/gcc/arm-none-eabi/14.2.0/../../../../arm-none-eabi/lib/thumb/arm946e-s/libc.a(libc_string_strchr.c.o)
 .debug_aranges
                0x00000160       0x20 /opt/wonderful/toolchain/gcc-arm-none-eabi/lib/gcc/arm-none-eabi/14.2.0/../../../../arm-none-eabi/lib/thumb/arm946e-s/libc.a(libc_string_strdup.c.o)
 .debug_aranges
                0x00000180       0x20 /opt/wonderful/toolchain/gcc-arm-none-eabi/lib/gcc/arm-none-eabi/14.2.0/../../../../arm-none-eabi/lib/thumb/arm946e-s/libc.a(libc_string_strncmp.c.o)
 .debug_aranges
                0x000001a0       0x20 /opt/wonderful/toolchain/gcc-arm-none-eabi/lib/gcc/arm-none-eabi/14.2.0/../../../../arm-none-eabi/lib/thumb/arm946e-s/libc.a(libc_string_strstr.c.o)
 .debug_aranges
                0x000001c0       0x20 /opt/wonderful/toolchain/gcc-arm-none-eabi/lib/gcc/arm-none-eabi/14.2.0/../../../../arm-none-eabi/lib/thumb/arm946e-s/libc.a(libc_time_lcltime.c.o)
 .debug_aranges
                0x000001e0       0x20 /opt/wonderful/toolchain/gcc-arm-none-eabi/lib/gcc/arm-none-eabi/14.2.0/../../../../arm-none-eabi/lib/thumb/arm946e-s/libc.a(libc_time_lcltime_r.c.o)
 .debug_aranges
                0x00000200       0x18 /opt/wonderful/toolchain/gcc-arm-none-eabi/lib/gcc/arm-none-eabi/14.2.0/../../../../arm-none-eabi/lib/thumb/arm946e-s/libc.a(libc_time_lcltime_buf.c.o)
 .debug_aranges
                0x00000218       0x18 /opt/wonderful/toolchain/gcc-arm-none-eabi/lib/gcc/arm-none-eabi/14.2.0/../../../../arm-none-eabi/lib/thumb/arm946e-s/libc.a(libc_time_month_lengths.c.o)
 .debug_aranges
                0x00000230       0x20 /opt/wonderful/toolchain/gcc-arm-none-eabi/lib/gcc/arm-none-eabi/14.2.0/../../../../arm-none-eabi/lib/thumb/arm946e-s/libc.a(libc_time_time.c.o)
 .debug_aranges
                0x00000250       0x20 /opt/wonderful/toolchain/gcc-arm-none-eabi/lib/gcc/arm-none-eabi/14.2.0/../../../../arm-none-eabi/lib/thumb/arm946e-s/libc.a(libc_time_tzcalc_limits.c.o)
 .debug_aranges
                0x00000270       0x28 /opt/wonderful/toolchain/gcc-arm-none-eabi/lib/gcc/arm-none-eabi/14.2.0/../../../../arm-none-eabi/lib/thumb/arm946e-s/libc.a(libc_time_tzset.c.o)
 .debug_aranges
                0x00000298       0x18 /opt/wonderful/toolchain/gcc-arm-none-eabi/lib/gcc/arm-none-eabi/14.2.0/../../../../arm-none-eabi/lib/thumb/arm946e-s/libc.a(libc_time_tzvars.c.o)
 .debug_aranges
                0x000002b0       0x20 /opt/wonderful/toolchain/gcc-arm-none-eabi/lib/gcc/arm-none-eabi/14.2.0/../../../../arm-none-eabi/lib/thumb/arm946e-s/libc.a(libc_tinystdio_fclose.c.o)
 .debug_aranges
                0x000002d0       0x20 /opt/wonderful/toolchain/gcc-arm-none-eabi/lib/gcc/arm-none-eabi/14.2.0/../../../../arm-none-eabi/lib/thumb/arm946e-s/libc.a(libc_tinystdio_fflush.c.o)
 .debug_aranges
                0x000002f0       0x20 /opt/wonderful/toolchain/gcc-arm-none-eabi/lib/gcc/arm-none-eabi/14.2.0/../../../../arm-none-eabi/lib/thumb/arm946e-s/libc.a(libc_tinystdio_fileno.c.o)
 .debug_aranges
                0x00000310       0x20 /opt/wonderful/toolchain/gcc-arm-none-eabi/lib/gcc/arm-none-eabi/14.2.0/../../../../arm-none-eabi/lib/thumb/arm946e-s/libc.a(libc_tinystdio_fread.c.o)
 .debug_aranges
                0x00000330       0x20 /opt/wonderful/toolchain/gcc-arm-none-eabi/lib/gcc/arm-none-eabi/14.2.0/../../../../arm-none-eabi/lib/thumb/arm946e-s/libc.a(libc_tinystdio_fseek.c.o)
 .debug_aranges
                0x00000350       0x20 /opt/wonderful/toolchain/gcc-arm-none-eabi/lib/gcc/arm-none-eabi/14.2.0/../../../../arm-none-eabi/lib/thumb/arm946e-s/libc.a(libc_tinystdio_ftell.c.o)
 .debug_aranges
                0x00000370       0x20 /opt/wonderful/toolchain/gcc-arm-none-eabi/lib/gcc/arm-none-eabi/14.2.0/../../../../arm-none-eabi/lib/thumb/arm946e-s/libc.a(libc_tinystdio_printf.c.o)
 .debug_aranges
                0x00000390       0x20 /opt/wonderful/toolchain/gcc-arm-none-eabi/lib/gcc/arm-none-eabi/14.2.0/../../../../arm-none-eabi/lib/thumb/arm946e-s/libc.a(libc_tinystdio_putchar.c.o)
 .debug_aranges
                0x000003b0       0x20 /opt/wonderful/toolchain/gcc-arm-none-eabi/lib/gcc/arm-none-eabi/14.2.0/../../../../arm-none-eabi/lib/thumb/arm946e-s/libc.a(libc_tinystdio_puts.c.o)
 .debug_aranges
                0x000003d0       0x20 /opt/wonderful/toolchain/gcc-arm-none-eabi/lib/gcc/arm-none-eabi/14.2.0/../../../../arm-none-eabi/lib/thumb/arm946e-s/libc.a(libc_tinystdio_rewind.c.o)
 .debug_aranges
                0x000003f0       0x20 /opt/wonderful/toolchain/gcc-arm-none-eabi/lib/gcc/arm-none-eabi/14.2.0/../../../../arm-none-eabi/lib/thumb/arm946e-s/libc.a(libc_tinystdio_setvbuf.c.o)
 .debug_aranges
                0x00000410       0x20 /opt/wonderful/toolchain/gcc-arm-none-eabi/lib/gcc/arm-none-eabi/14.2.0/../../../../arm-none-eabi/lib/thumb/arm946e-s/libc.a(libc_tinystdio_snprintf.c.o)
 .debug_aranges
                0x00000430       0x20 /opt/wonderful/toolchain/gcc-arm-none-eabi/lib/gcc/arm-none-eabi/14.2.0/../../../../arm-none-eabi/lib/thumb/arm946e-s/libc.a(libc_tinystdio_sscanf.c.o)
 .debug_aranges
                0x00000450       0x20 /opt/wonderful/toolchain/gcc-arm-none-eabi/lib/gcc/arm-none-eabi/14.2.0/../../../../arm-none-eabi/lib/thumb/arm946e-s/libc.a(libc_tinystdio_strtoul.c.o)
 .debug_aranges
                0x00000470       0x30 /opt/wonderful/toolchain/gcc-arm-none-eabi/lib/gcc/arm-none-eabi/14.2.0/../../../../arm-none-eabi/lib/thumb/arm946e-s/libc.a(libc_tinystdio_vfprintf.c.o)
 .debug_aranges
                0x000004a0       0x40 /opt/wonderful/toolchain/gcc-arm-none-eabi/lib/gcc/arm-none-eabi/14.2.0/../../../../arm-none-eabi/lib/thumb/arm946e-s/libc.a(libc_tinystdio_vfscanf.c.o)
 .debug_aranges
                0x000004e0       0x28 /opt/wonderful/toolchain/gcc-arm-none-eabi/lib/gcc/arm-none-eabi/14.2.0/../../../../arm-none-eabi/lib/thumb/arm946e-s/libc.a(libc_tinystdio_atod_ryu.c.o)
 .debug_aranges
                0x00000508       0x20 /opt/wonderful/toolchain/gcc-arm-none-eabi/lib/gcc/arm-none-eabi/14.2.0/../../../../arm-none-eabi/lib/thumb/arm946e-s/libc.a(libc_tinystdio_atof_ryu.c.o)
 .debug_aranges
                0x00000528       0x30 /opt/wonderful/toolchain/gcc-arm-none-eabi/lib/gcc/arm-none-eabi/14.2.0/../../../../arm-none-eabi/lib/thumb/arm946e-s/libc.a(libc_tinystdio_dtoa_ryu.c.o)
 .debug_aranges
                0x00000558       0x30 /opt/wonderful/toolchain/gcc-arm-none-eabi/lib/gcc/arm-none-eabi/14.2.0/../../../../arm-none-eabi/lib/thumb/arm946e-s/libc.a(libc_tinystdio_ryu_divpow2.c.o)
 .debug_aranges
                0x00000588       0x28 /opt/wonderful/toolchain/gcc-arm-none-eabi/lib/gcc/arm-none-eabi/14.2.0/../../../../arm-none-eabi/lib/thumb/arm946e-s/libc.a(libc_tinystdio_ryu_log10.c.o)
 .debug_aranges
                0x000005b0       0x28 /opt/wonderful/toolchain/gcc-arm-none-eabi/lib/gcc/arm-none-eabi/14.2.0/../../../../arm-none-eabi/lib/thumb/arm946e-s/libc.a(libc_tinystdio_ryu_log2pow5.c.o)
 .debug_aranges
                0x000005d8       0x20 /opt/wonderful/toolchain/gcc-arm-none-eabi/lib/gcc/arm-none-eabi/14.2.0/../../../../arm-none-eabi/lib/thumb/arm946e-s/libc.a(libc_tinystdio_ryu_pow5bits.c.o)
 .debug_aranges
                0x000005f8       0x30 /opt/wonderful/toolchain/gcc-arm-none-eabi/lib/gcc/arm-none-eabi/14.2.0/../../../../arm-none-eabi/lib/thumb/arm946e-s/libc.a(libc_tinystdio_ryu_table.c.o)
 .debug_aranges
                0x00000628       0x28 /opt/wonderful/toolchain/gcc-arm-none-eabi/lib/gcc/arm-none-eabi/14.2.0/../../../../arm-none-eabi/lib/thumb/arm946e-s/libc.a(libc_tinystdio_ryu_umul128.c.o)
 .debug_aranges
                0x00000650       0x20 /opt/wonderful/toolchain/gcc-arm-none-eabi/lib/gcc/arm-none-eabi/14.2.0/../../../../arm-none-eabi/lib/thumb/arm946e-s/libc.a(libc_tinystdio_exchange.c.o)
 .debug_aranges
                0x00000670       0x20 /opt/wonderful/toolchain/gcc-arm-none-eabi/lib/gcc/arm-none-eabi/14.2.0/../../../../arm-none-eabi/lib/thumb/arm946e-s/libc.a(libc_tinystdio_fdopen.c.o)
 .debug_aranges
                0x00000690       0x20 /opt/wonderful/toolchain/gcc-arm-none-eabi/lib/gcc/arm-none-eabi/14.2.0/../../../../arm-none-eabi/lib/thumb/arm946e-s/libc.a(libc_tinystdio_fopen.c.o)
 .debug_aranges
                0x000006b0       0x20 /opt/wonderful/toolchain/gcc-arm-none-eabi/lib/gcc/arm-none-eabi/14.2.0/../../../../arm-none-eabi/lib/thumb/arm946e-s/libc.a(memmove.c.o)
 .debug_aranges
                0x000006d0       0x20 /opt/wonderful/toolchain/gcc-arm-none-eabi/lib/gcc/arm-none-eabi/14.2.0/../../../../arm-none-eabi/lib/thumb/arm946e-s/libc.a(libc_misc_fini.c.o)
 .debug_aranges
                0x000006f0       0x20 /opt/wonderful/toolchain/gcc-arm-none-eabi/lib/gcc/arm-none-eabi/14.2.0/../../../../arm-none-eabi/lib/thumb/arm946e-s/libc.a(libc_stdlib_getenv.c.o)
 .debug_aranges
                0x00000710       0x20 /opt/wonderful/toolchain/gcc-arm-none-eabi/lib/gcc/arm-none-eabi/14.2.0/../../../../arm-none-eabi/lib/thumb/arm946e-s/libc.a(libc_stdlib_getenv_r.c.o)
 .debug_aranges
                0x00000730       0x20 /opt/wonderful/toolchain/gcc-arm-none-eabi/lib/gcc/arm-none-eabi/14.2.0/../../../../arm-none-eabi/lib/thumb/arm946e-s/libc.a(libc_string_strnlen.c.o)
 .debug_aranges
                0x00000750       0x20 /opt/wonderful/toolchain/gcc-arm-none-eabi/lib/gcc/arm-none-eabi/14.2.0/../../../../arm-none-eabi/lib/thumb/arm946e-s/libc.a(libc_time_gettzinfo.c.o)
 .debug_aranges
                0x00000770       0x20 /opt/wonderful/toolchain/gcc-arm-none-eabi/lib/gcc/arm-none-eabi/14.2.0/../../../../arm-none-eabi/lib/thumb/arm946e-s/libc.a(libc_time_gmtime_r.c.o)
 .debug_aranges
                0x00000790       0x20 /opt/wonderful/toolchain/gcc-arm-none-eabi/lib/gcc/arm-none-eabi/14.2.0/../../../../arm-none-eabi/lib/thumb/arm946e-s/libc.a(libc_tinystdio_atomic_load.c.o)
 .debug_aranges
                0x000007b0       0x60 /opt/wonderful/toolchain/gcc-arm-none-eabi/lib/gcc/arm-none-eabi/14.2.0/../../../../arm-none-eabi/lib/thumb/arm946e-s/libc.a(libc_tinystdio_bufio.c.o)
 .debug_aranges
                0x00000810       0x20 /opt/wonderful/toolchain/gcc-arm-none-eabi/lib/gcc/arm-none-eabi/14.2.0/../../../../arm-none-eabi/lib/thumb/arm946e-s/libc.a(libc_tinystdio_dtox_engine.c.o)
 .debug_aranges
                0x00000830       0x20 /opt/wonderful/toolchain/gcc-arm-none-eabi/lib/gcc/arm-none-eabi/14.2.0/../../../../arm-none-eabi/lib/thumb/arm946e-s/libc.a(libc_tinystdio_fgetc.c.o)
 .debug_aranges
                0x00000850       0x20 /opt/wonderful/toolchain/gcc-arm-none-eabi/lib/gcc/arm-none-eabi/14.2.0/../../../../arm-none-eabi/lib/thumb/arm946e-s/libc.a(libc_tinystdio_filestrget.c.o)
 .debug_aranges
                0x00000870       0x20 /opt/wonderful/toolchain/gcc-arm-none-eabi/lib/gcc/arm-none-eabi/14.2.0/../../../../arm-none-eabi/lib/thumb/arm946e-s/libc.a(libc_tinystdio_filestrput.c.o)
 .debug_aranges
                0x00000890       0x20 /opt/wonderful/toolchain/gcc-arm-none-eabi/lib/gcc/arm-none-eabi/14.2.0/../../../../arm-none-eabi/lib/thumb/arm946e-s/libc.a(libc_tinystdio_fputc.c.o)
 .debug_aranges
                0x000008b0       0x20 /opt/wonderful/toolchain/gcc-arm-none-eabi/lib/gcc/arm-none-eabi/14.2.0/../../../../arm-none-eabi/lib/thumb/arm946e-s/libc.a(libc_tinystdio_fseeko.c.o)
 .debug_aranges
                0x000008d0       0x20 /opt/wonderful/toolchain/gcc-arm-none-eabi/lib/gcc/arm-none-eabi/14.2.0/../../../../arm-none-eabi/lib/thumb/arm946e-s/libc.a(libc_tinystdio_sflags.c.o)
 .debug_aranges
                0x000008f0       0x20 /opt/wonderful/toolchain/gcc-arm-none-eabi/lib/gcc/arm-none-eabi/14.2.0/../../../../arm-none-eabi/lib/thumb/arm946e-s/libc.a(libc_tinystdio_ungetc.c.o)
 .debug_aranges
                0x00000910       0x20 /opt/wonderful/toolchain/gcc-arm-none-eabi/lib/gcc/arm-none-eabi/14.2.0/../../../../arm-none-eabi/lib/thumb/arm946e-s/libc.a(libc_tinystdio_compare_exchange.c.o)
 .debug_aranges
                0x00000930       0x18 /opt/wonderful/toolchain/gcc-arm-none-eabi/lib/gcc/arm-none-eabi/14.2.0/../../../../arm-none-eabi/lib/thumb/arm946e-s/libc.a(libc_stdlib_environ.c.o)
 .debug_aranges
                0x00000948       0x20 /opt/wonderful/toolchain/gcc-arm-none-eabi/lib/gcc/arm-none-eabi/14.2.0/thumb/arm946e-s/libgcc.a(_thumb1_case_uqi.o)
 .debug_aranges
                0x00000968       0x20 /opt/wonderful/toolchain/gcc-arm-none-eabi/lib/gcc/arm-none-eabi/14.2.0/thumb/arm946e-s/libgcc.a(_thumb1_case_uhi.o)
 .debug_aranges
                0x00000988       0x20 /opt/wonderful/toolchain/gcc-arm-none-eabi/lib/gcc/arm-none-eabi/14.2.0/thumb/arm946e-s/libgcc.a(_udivsi3.o)
 .debug_aranges
                0x000009a8       0x20 /opt/wonderful/toolchain/gcc-arm-none-eabi/lib/gcc/arm-none-eabi/14.2.0/thumb/arm946e-s/libgcc.a(_divsi3.o)
 .debug_aranges
                0x000009c8       0x20 /opt/wonderful/toolchain/gcc-arm-none-eabi/lib/gcc/arm-none-eabi/14.2.0/thumb/arm946e-s/libgcc.a(_dvmd_tls.o)
 .debug_aranges
                0x000009e8       0x20 /opt/wonderful/toolchain/gcc-arm-none-eabi/lib/gcc/arm-none-eabi/14.2.0/thumb/arm946e-s/libgcc.a(_lshrdi3.o)
 .debug_aranges
                0x00000a08       0x20 /opt/wonderful/toolchain/gcc-arm-none-eabi/lib/gcc/arm-none-eabi/14.2.0/thumb/arm946e-s/libgcc.a(_ashrdi3.o)
 .debug_aranges
                0x00000a28       0x20 /opt/wonderful/toolchain/gcc-arm-none-eabi/lib/gcc/arm-none-eabi/14.2.0/thumb/arm946e-s/libgcc.a(_ashldi3.o)
 .debug_aranges
                0x00000a48       0x20 /opt/wonderful/toolchain/gcc-arm-none-eabi/lib/gcc/arm-none-eabi/14.2.0/thumb/arm946e-s/libgcc.a(_arm_addsubdf3.o)
 .debug_aranges
                0x00000a68       0x20 /opt/wonderful/toolchain/gcc-arm-none-eabi/lib/gcc/arm-none-eabi/14.2.0/thumb/arm946e-s/libgcc.a(_arm_cmpdf2.o)
 .debug_aranges
                0x00000a88       0x20 /opt/wonderful/toolchain/gcc-arm-none-eabi/lib/gcc/arm-none-eabi/14.2.0/thumb/arm946e-s/libgcc.a(_arm_truncdfsf2.o)
 .debug_aranges
                0x00000aa8       0x20 /opt/wonderful/toolchain/gcc-arm-none-eabi/lib/gcc/arm-none-eabi/14.2.0/thumb/arm946e-s/libgcc.a(_clzsi2.o)
 .debug_aranges
                0x00000ac8       0x20 /opt/wonderful/toolchain/gcc-arm-none-eabi/lib/gcc/arm-none-eabi/14.2.0/thumb/arm946e-s/libgcc.a(_clzdi2.o)
 .debug_aranges
                0x00000ae8       0x20 /opt/wonderful/toolchain/gcc-arm-none-eabi/lib/gcc/arm-none-eabi/14.2.0/thumb/arm946e-s/libgcc.a(_aeabi_ldivmod.o)
 .debug_aranges
                0x00000b08       0x20 /opt/wonderful/toolchain/gcc-arm-none-eabi/lib/gcc/arm-none-eabi/14.2.0/thumb/arm946e-s/libgcc.a(_aeabi_uldivmod.o)
 .debug_aranges
                0x00000b28       0x20 /opt/wonderful/toolchain/gcc-arm-none-eabi/lib/gcc/arm-none-eabi/14.2.0/thumb/arm946e-s/libgcc.a(_muldi3.o)
 .debug_aranges
                0x00000b48       0x20 /opt/wonderful/toolchain/gcc-arm-none-eabi/lib/gcc/arm-none-eabi/14.2.0/thumb/arm946e-s/libgcc.a(_udivmoddi4.o)

.debug_pubnames
 *(.debug_pubnames)

.debug_info     0x00000000     0xe566
 *(.debug_info .gnu.linkonce.wi.*)
 .debug_info    0x00000000       0x31 /opt/wonderful/toolchain/gcc-arm-none-eabi/lib/gcc/arm-none-eabi/14.2.0/../../../../arm-none-eabi/lib/thumb/arm946e-s/libc.a(strcmp.S.o)
 .debug_info    0x00000031       0x31 /opt/wonderful/toolchain/gcc-arm-none-eabi/lib/gcc/arm-none-eabi/14.2.0/../../../../arm-none-eabi/lib/thumb/arm946e-s/libc.a(strlen.S.o)
 .debug_info    0x00000062      0x20a /opt/wonderful/toolchain/gcc-arm-none-eabi/lib/gcc/arm-none-eabi/14.2.0/../../../../arm-none-eabi/lib/thumb/arm946e-s/libc.a(malloc-calloc.c.o)
 .debug_info    0x0000026c      0x431 /opt/wonderful/toolchain/gcc-arm-none-eabi/lib/gcc/arm-none-eabi/14.2.0/../../../../arm-none-eabi/lib/thumb/arm946e-s/libc.a(malloc-free.c.o)
 .debug_info    0x0000069d      0x578 /opt/wonderful/toolchain/gcc-arm-none-eabi/lib/gcc/arm-none-eabi/14.2.0/../../../../arm-none-eabi/lib/thumb/arm946e-s/libc.a(malloc-malloc.c.o)
 .debug_info    0x00000c15      0x527 /opt/wonderful/toolchain/gcc-arm-none-eabi/lib/gcc/arm-none-eabi/14.2.0/../../../../arm-none-eabi/lib/thumb/arm946e-s/libc.a(malloc-realloc.c.o)
 .debug_info    0x0000113c       0x80 /opt/wonderful/toolchain/gcc-arm-none-eabi/lib/gcc/arm-none-eabi/14.2.0/../../../../arm-none-eabi/lib/thumb/arm946e-s/libc.a(libc_errno_errno.c.o)
 .debug_info    0x000011bc      0x104 /opt/wonderful/toolchain/gcc-arm-none-eabi/lib/gcc/arm-none-eabi/14.2.0/../../../../arm-none-eabi/lib/thumb/arm946e-s/libc.a(libc_misc_init.c.o)
 .debug_info    0x000012c0      0x113 /opt/wonderful/toolchain/gcc-arm-none-eabi/lib/gcc/arm-none-eabi/14.2.0/../../../../arm-none-eabi/lib/thumb/arm946e-s/libc.a(libc_stdlib_pico-exit.c.o)
 .debug_info    0x000013d3       0xf6 /opt/wonderful/toolchain/gcc-arm-none-eabi/lib/gcc/arm-none-eabi/14.2.0/../../../../arm-none-eabi/lib/thumb/arm946e-s/libc.a(libc_string_memcmp.c.o)
 .debug_info    0x000014c9       0xed /opt/wonderful/toolchain/gcc-arm-none-eabi/lib/gcc/arm-none-eabi/14.2.0/../../../../arm-none-eabi/lib/thumb/arm946e-s/libc.a(libc_string_strchr.c.o)
 .debug_info    0x000015b6      0x189 /opt/wonderful/toolchain/gcc-arm-none-eabi/lib/gcc/arm-none-eabi/14.2.0/../../../../arm-none-eabi/lib/thumb/arm946e-s/libc.a(libc_string_strdup.c.o)
 .debug_info    0x0000173f       0xdb /opt/wonderful/toolchain/gcc-arm-none-eabi/lib/gcc/arm-none-eabi/14.2.0/../../../../arm-none-eabi/lib/thumb/arm946e-s/libc.a(libc_string_strncmp.c.o)
 .debug_info    0x0000181a       0xec /opt/wonderful/toolchain/gcc-arm-none-eabi/lib/gcc/arm-none-eabi/14.2.0/../../../../arm-none-eabi/lib/thumb/arm946e-s/libc.a(libc_string_strstr.c.o)
 .debug_info    0x00001906      0x189 /opt/wonderful/toolchain/gcc-arm-none-eabi/lib/gcc/arm-none-eabi/14.2.0/../../../../arm-none-eabi/lib/thumb/arm946e-s/libc.a(libc_time_lcltime.c.o)
 .debug_info    0x00001a8f      0x4fc /opt/wonderful/toolchain/gcc-arm-none-eabi/lib/gcc/arm-none-eabi/14.2.0/../../../../arm-none-eabi/lib/thumb/arm946e-s/libc.a(libc_time_lcltime_r.c.o)
 .debug_info    0x00001f8b       0xe8 /opt/wonderful/toolchain/gcc-arm-none-eabi/lib/gcc/arm-none-eabi/14.2.0/../../../../arm-none-eabi/lib/thumb/arm946e-s/libc.a(libc_time_lcltime_buf.c.o)
 .debug_info    0x00002073       0xbe /opt/wonderful/toolchain/gcc-arm-none-eabi/lib/gcc/arm-none-eabi/14.2.0/../../../../arm-none-eabi/lib/thumb/arm946e-s/libc.a(libc_time_month_lengths.c.o)
 .debug_info    0x00002131      0x153 /opt/wonderful/toolchain/gcc-arm-none-eabi/lib/gcc/arm-none-eabi/14.2.0/../../../../arm-none-eabi/lib/thumb/arm946e-s/libc.a(libc_time_time.c.o)
 .debug_info    0x00002284      0x3d3 /opt/wonderful/toolchain/gcc-arm-none-eabi/lib/gcc/arm-none-eabi/14.2.0/../../../../arm-none-eabi/lib/thumb/arm946e-s/libc.a(libc_time_tzcalc_limits.c.o)
 .debug_info    0x00002657      0x5f8 /opt/wonderful/toolchain/gcc-arm-none-eabi/lib/gcc/arm-none-eabi/14.2.0/../../../../arm-none-eabi/lib/thumb/arm946e-s/libc.a(libc_time_tzset.c.o)
 .debug_info    0x00002c4f       0xca /opt/wonderful/toolchain/gcc-arm-none-eabi/lib/gcc/arm-none-eabi/14.2.0/../../../../arm-none-eabi/lib/thumb/arm946e-s/libc.a(libc_time_tzvars.c.o)
 .debug_info    0x00002d19      0x1c5 /opt/wonderful/toolchain/gcc-arm-none-eabi/lib/gcc/arm-none-eabi/14.2.0/../../../../arm-none-eabi/lib/thumb/arm946e-s/libc.a(libc_tinystdio_fclose.c.o)
 .debug_info    0x00002ede      0x189 /opt/wonderful/toolchain/gcc-arm-none-eabi/lib/gcc/arm-none-eabi/14.2.0/../../../../arm-none-eabi/lib/thumb/arm946e-s/libc.a(libc_tinystdio_fflush.c.o)
 .debug_info    0x00003067      0x4b1 /opt/wonderful/toolchain/gcc-arm-none-eabi/lib/gcc/arm-none-eabi/14.2.0/../../../../arm-none-eabi/lib/thumb/arm946e-s/libc.a(libc_tinystdio_fileno.c.o)
 .debug_info    0x00003518      0x856 /opt/wonderful/toolchain/gcc-arm-none-eabi/lib/gcc/arm-none-eabi/14.2.0/../../../../arm-none-eabi/lib/thumb/arm946e-s/libc.a(libc_tinystdio_fread.c.o)
 .debug_info    0x00003d6e      0x2dc /opt/wonderful/toolchain/gcc-arm-none-eabi/lib/gcc/arm-none-eabi/14.2.0/../../../../arm-none-eabi/lib/thumb/arm946e-s/libc.a(libc_tinystdio_fseek.c.o)
 .debug_info    0x0000404a      0x2c4 /opt/wonderful/toolchain/gcc-arm-none-eabi/lib/gcc/arm-none-eabi/14.2.0/../../../../arm-none-eabi/lib/thumb/arm946e-s/libc.a(libc_tinystdio_ftell.c.o)
 .debug_info    0x0000430e      0x215 /opt/wonderful/toolchain/gcc-arm-none-eabi/lib/gcc/arm-none-eabi/14.2.0/../../../../arm-none-eabi/lib/thumb/arm946e-s/libc.a(libc_tinystdio_printf.c.o)
 .debug_info    0x00004523      0x1b7 /opt/wonderful/toolchain/gcc-arm-none-eabi/lib/gcc/arm-none-eabi/14.2.0/../../../../arm-none-eabi/lib/thumb/arm946e-s/libc.a(libc_tinystdio_putchar.c.o)
 .debug_info    0x000046da      0x1f9 /opt/wonderful/toolchain/gcc-arm-none-eabi/lib/gcc/arm-none-eabi/14.2.0/../../../../arm-none-eabi/lib/thumb/arm946e-s/libc.a(libc_tinystdio_puts.c.o)
 .debug_info    0x000048d3      0x1ad /opt/wonderful/toolchain/gcc-arm-none-eabi/lib/gcc/arm-none-eabi/14.2.0/../../../../arm-none-eabi/lib/thumb/arm946e-s/libc.a(libc_tinystdio_rewind.c.o)
 .debug_info    0x00004a80      0x2ba /opt/wonderful/toolchain/gcc-arm-none-eabi/lib/gcc/arm-none-eabi/14.2.0/../../../../arm-none-eabi/lib/thumb/arm946e-s/libc.a(libc_tinystdio_setvbuf.c.o)
 .debug_info    0x00004d3a      0x2e3 /opt/wonderful/toolchain/gcc-arm-none-eabi/lib/gcc/arm-none-eabi/14.2.0/../../../../arm-none-eabi/lib/thumb/arm946e-s/libc.a(libc_tinystdio_snprintf.c.o)
 .debug_info    0x0000501d      0x2d1 /opt/wonderful/toolchain/gcc-arm-none-eabi/lib/gcc/arm-none-eabi/14.2.0/../../../../arm-none-eabi/lib/thumb/arm946e-s/libc.a(libc_tinystdio_sscanf.c.o)
 .debug_info    0x000052ee      0x1ec /opt/wonderful/toolchain/gcc-arm-none-eabi/lib/gcc/arm-none-eabi/14.2.0/../../../../arm-none-eabi/lib/thumb/arm946e-s/libc.a(libc_tinystdio_strtoul.c.o)
 .debug_info    0x000054da      0xbdd /opt/wonderful/toolchain/gcc-arm-none-eabi/lib/gcc/arm-none-eabi/14.2.0/../../../../arm-none-eabi/lib/thumb/arm946e-s/libc.a(libc_tinystdio_vfprintf.c.o)
 .debug_info    0x000060b7     0x14f4 /opt/wonderful/toolchain/gcc-arm-none-eabi/lib/gcc/arm-none-eabi/14.2.0/../../../../arm-none-eabi/lib/thumb/arm946e-s/libc.a(libc_tinystdio_vfscanf.c.o)
 .debug_info    0x000075ab      0x6ad /opt/wonderful/toolchain/gcc-arm-none-eabi/lib/gcc/arm-none-eabi/14.2.0/../../../../arm-none-eabi/lib/thumb/arm946e-s/libc.a(libc_tinystdio_atod_ryu.c.o)
 .debug_info    0x00007c58      0x5b6 /opt/wonderful/toolchain/gcc-arm-none-eabi/lib/gcc/arm-none-eabi/14.2.0/../../../../arm-none-eabi/lib/thumb/arm946e-s/libc.a(libc_tinystdio_atof_ryu.c.o)
 .debug_info    0x0000820e     0x11ee /opt/wonderful/toolchain/gcc-arm-none-eabi/lib/gcc/arm-none-eabi/14.2.0/../../../../arm-none-eabi/lib/thumb/arm946e-s/libc.a(libc_tinystdio_dtoa_ryu.c.o)
 .debug_info    0x000093fc      0x333 /opt/wonderful/toolchain/gcc-arm-none-eabi/lib/gcc/arm-none-eabi/14.2.0/../../../../arm-none-eabi/lib/thumb/arm946e-s/libc.a(libc_tinystdio_ryu_divpow2.c.o)
 .debug_info    0x0000972f       0xf4 /opt/wonderful/toolchain/gcc-arm-none-eabi/lib/gcc/arm-none-eabi/14.2.0/../../../../arm-none-eabi/lib/thumb/arm946e-s/libc.a(libc_tinystdio_ryu_log10.c.o)
 .debug_info    0x00009823      0x127 /opt/wonderful/toolchain/gcc-arm-none-eabi/lib/gcc/arm-none-eabi/14.2.0/../../../../arm-none-eabi/lib/thumb/arm946e-s/libc.a(libc_tinystdio_ryu_log2pow5.c.o)
 .debug_info    0x0000994a       0xcb /opt/wonderful/toolchain/gcc-arm-none-eabi/lib/gcc/arm-none-eabi/14.2.0/../../../../arm-none-eabi/lib/thumb/arm946e-s/libc.a(libc_tinystdio_ryu_pow5bits.c.o)
 .debug_info    0x00009a15      0x59d /opt/wonderful/toolchain/gcc-arm-none-eabi/lib/gcc/arm-none-eabi/14.2.0/../../../../arm-none-eabi/lib/thumb/arm946e-s/libc.a(libc_tinystdio_ryu_table.c.o)
 .debug_info    0x00009fb2      0x2b3 /opt/wonderful/toolchain/gcc-arm-none-eabi/lib/gcc/arm-none-eabi/14.2.0/../../../../arm-none-eabi/lib/thumb/arm946e-s/libc.a(libc_tinystdio_ryu_umul128.c.o)
 .debug_info    0x0000a265      0x15c /opt/wonderful/toolchain/gcc-arm-none-eabi/lib/gcc/arm-none-eabi/14.2.0/../../../../arm-none-eabi/lib/thumb/arm946e-s/libc.a(libc_tinystdio_exchange.c.o)
 .debug_info    0x0000a3c1      0x748 /opt/wonderful/toolchain/gcc-arm-none-eabi/lib/gcc/arm-none-eabi/14.2.0/../../../../arm-none-eabi/lib/thumb/arm946e-s/libc.a(libc_tinystdio_fdopen.c.o)
 .debug_info    0x0000ab09      0x263 /opt/wonderful/toolchain/gcc-arm-none-eabi/lib/gcc/arm-none-eabi/14.2.0/../../../../arm-none-eabi/lib/thumb/arm946e-s/libc.a(libc_tinystdio_fopen.c.o)
 .debug_info    0x0000ad6c      0x109 /opt/wonderful/toolchain/gcc-arm-none-eabi/lib/gcc/arm-none-eabi/14.2.0/../../../../arm-none-eabi/lib/thumb/arm946e-s/libc.a(memmove.c.o)
 .debug_info    0x0000ae75       0xf0 /opt/wonderful/toolchain/gcc-arm-none-eabi/lib/gcc/arm-none-eabi/14.2.0/../../../../arm-none-eabi/lib/thumb/arm946e-s/libc.a(libc_misc_fini.c.o)
 .debug_info    0x0000af65      0x101 /opt/wonderful/toolchain/gcc-arm-none-eabi/lib/gcc/arm-none-eabi/14.2.0/../../../../arm-none-eabi/lib/thumb/arm946e-s/libc.a(libc_stdlib_getenv.c.o)
 .debug_info    0x0000b066      0x1e5 /opt/wonderful/toolchain/gcc-arm-none-eabi/lib/gcc/arm-none-eabi/14.2.0/../../../../arm-none-eabi/lib/thumb/arm946e-s/libc.a(libc_stdlib_getenv_r.c.o)
 .debug_info    0x0000b24b       0xde /opt/wonderful/toolchain/gcc-arm-none-eabi/lib/gcc/arm-none-eabi/14.2.0/../../../../arm-none-eabi/lib/thumb/arm946e-s/libc.a(libc_string_strnlen.c.o)
 .debug_info    0x0000b329      0x16a /opt/wonderful/toolchain/gcc-arm-none-eabi/lib/gcc/arm-none-eabi/14.2.0/../../../../arm-none-eabi/lib/thumb/arm946e-s/libc.a(libc_time_gettzinfo.c.o)
 .debug_info    0x0000b493      0x31e /opt/wonderful/toolchain/gcc-arm-none-eabi/lib/gcc/arm-none-eabi/14.2.0/../../../../arm-none-eabi/lib/thumb/arm946e-s/libc.a(libc_time_gmtime_r.c.o)
 .debug_info    0x0000b7b1      0x12e /opt/wonderful/toolchain/gcc-arm-none-eabi/lib/gcc/arm-none-eabi/14.2.0/../../../../arm-none-eabi/lib/thumb/arm946e-s/libc.a(libc_tinystdio_atomic_load.c.o)
 .debug_info    0x0000b8df      0xe82 /opt/wonderful/toolchain/gcc-arm-none-eabi/lib/gcc/arm-none-eabi/14.2.0/../../../../arm-none-eabi/lib/thumb/arm946e-s/libc.a(libc_tinystdio_bufio.c.o)
 .debug_info    0x0000c761      0x2cf /opt/wonderful/toolchain/gcc-arm-none-eabi/lib/gcc/arm-none-eabi/14.2.0/../../../../arm-none-eabi/lib/thumb/arm946e-s/libc.a(libc_tinystdio_dtox_engine.c.o)
 .debug_info    0x0000ca30      0x1dd /opt/wonderful/toolchain/gcc-arm-none-eabi/lib/gcc/arm-none-eabi/14.2.0/../../../../arm-none-eabi/lib/thumb/arm946e-s/libc.a(libc_tinystdio_fgetc.c.o)
 .debug_info    0x0000cc0d      0x20b /opt/wonderful/toolchain/gcc-arm-none-eabi/lib/gcc/arm-none-eabi/14.2.0/../../../../arm-none-eabi/lib/thumb/arm946e-s/libc.a(libc_tinystdio_filestrget.c.o)
 .debug_info    0x0000ce18      0x1fe /opt/wonderful/toolchain/gcc-arm-none-eabi/lib/gcc/arm-none-eabi/14.2.0/../../../../arm-none-eabi/lib/thumb/arm946e-s/libc.a(libc_tinystdio_filestrput.c.o)
 .debug_info    0x0000d016      0x19e /opt/wonderful/toolchain/gcc-arm-none-eabi/lib/gcc/arm-none-eabi/14.2.0/../../../../arm-none-eabi/lib/thumb/arm946e-s/libc.a(libc_tinystdio_fputc.c.o)
 .debug_info    0x0000d1b4      0x2dc /opt/wonderful/toolchain/gcc-arm-none-eabi/lib/gcc/arm-none-eabi/14.2.0/../../../../arm-none-eabi/lib/thumb/arm946e-s/libc.a(libc_tinystdio_fseeko.c.o)
 .debug_info    0x0000d490      0x11d /opt/wonderful/toolchain/gcc-arm-none-eabi/lib/gcc/arm-none-eabi/14.2.0/../../../../arm-none-eabi/lib/thumb/arm946e-s/libc.a(libc_tinystdio_sflags.c.o)
 .debug_info    0x0000d5ad      0x1cf /opt/wonderful/toolchain/gcc-arm-none-eabi/lib/gcc/arm-none-eabi/14.2.0/../../../../arm-none-eabi/lib/thumb/arm946e-s/libc.a(libc_tinystdio_ungetc.c.o)
 .debug_info    0x0000d77c      0x14f /opt/wonderful/toolchain/gcc-arm-none-eabi/lib/gcc/arm-none-eabi/14.2.0/../../../../arm-none-eabi/lib/thumb/arm946e-s/libc.a(libc_tinystdio_compare_exchange.c.o)
 .debug_info    0x0000d8cb       0x6b /opt/wonderful/toolchain/gcc-arm-none-eabi/lib/gcc/arm-none-eabi/14.2.0/../../../../arm-none-eabi/lib/thumb/arm946e-s/libc.a(libc_stdlib_environ.c.o)
 .debug_info    0x0000d936       0x31 /opt/wonderful/toolchain/gcc-arm-none-eabi/lib/gcc/arm-none-eabi/14.2.0/thumb/arm946e-s/libgcc.a(_thumb1_case_uqi.o)
 .debug_info    0x0000d967       0x31 /opt/wonderful/toolchain/gcc-arm-none-eabi/lib/gcc/arm-none-eabi/14.2.0/thumb/arm946e-s/libgcc.a(_thumb1_case_uhi.o)
 .debug_info    0x0000d998       0x3e /opt/wonderful/toolchain/gcc-arm-none-eabi/lib/gcc/arm-none-eabi/14.2.0/thumb/arm946e-s/libgcc.a(_udivsi3.o)
 .debug_info    0x0000d9d6       0x3e /opt/wonderful/toolchain/gcc-arm-none-eabi/lib/gcc/arm-none-eabi/14.2.0/thumb/arm946e-s/libgcc.a(_divsi3.o)
 .debug_info    0x0000da14       0x3c /opt/wonderful/toolchain/gcc-arm-none-eabi/lib/gcc/arm-none-eabi/14.2.0/thumb/arm946e-s/libgcc.a(_dvmd_tls.o)
 .debug_info    0x0000da50       0x3c /opt/wonderful/toolchain/gcc-arm-none-eabi/lib/gcc/arm-none-eabi/14.2.0/thumb/arm946e-s/libgcc.a(_lshrdi3.o)
 .debug_info    0x0000da8c       0x3c /opt/wonderful/toolchain/gcc-arm-none-eabi/lib/gcc/arm-none-eabi/14.2.0/thumb/arm946e-s/libgcc.a(_ashrdi3.o)
 .debug_info    0x0000dac8       0x3c /opt/wonderful/toolchain/gcc-arm-none-eabi/lib/gcc/arm-none-eabi/14.2.0/thumb/arm946e-s/libgcc.a(_ashldi3.o)
 .debug_info    0x0000db04       0xd3 /opt/wonderful/toolchain/gcc-arm-none-eabi/lib/gcc/arm-none-eabi/14.2.0/thumb/arm946e-s/libgcc.a(_arm_addsubdf3.o)
 .debug_info    0x0000dbd7       0xe2 /opt/wonderful/toolchain/gcc-arm-none-eabi/lib/gcc/arm-none-eabi/14.2.0/thumb/arm946e-s/libgcc.a(_arm_cmpdf2.o)
 .debug_info    0x0000dcb9       0x3f /opt/wonderful/toolchain/gcc-arm-none-eabi/lib/gcc/arm-none-eabi/14.2.0/thumb/arm946e-s/libgcc.a(_arm_truncdfsf2.o)
 .debug_info    0x0000dcf8       0x31 /opt/wonderful/toolchain/gcc-arm-none-eabi/lib/gcc/arm-none-eabi/14.2.0/thumb/arm946e-s/libgcc.a(_clzsi2.o)
 .debug_info    0x0000dd29       0x31 /opt/wonderful/toolchain/gcc-arm-none-eabi/lib/gcc/arm-none-eabi/14.2.0/thumb/arm946e-s/libgcc.a(_clzdi2.o)
 .debug_info    0x0000dd5a       0x25 /opt/wonderful/toolchain/gcc-arm-none-eabi/lib/gcc/arm-none-eabi/14.2.0/thumb/arm946e-s/libgcc.a(_aeabi_ldivmod.o)
 .debug_info    0x0000dd7f       0x24 /opt/wonderful/toolchain/gcc-arm-none-eabi/lib/gcc/arm-none-eabi/14.2.0/thumb/arm946e-s/libgcc.a(_aeabi_uldivmod.o)
 .debug_info    0x0000dda3      0x420 /opt/wonderful/toolchain/gcc-arm-none-eabi/lib/gcc/arm-none-eabi/14.2.0/thumb/arm946e-s/libgcc.a(_muldi3.o)
 .debug_info    0x0000e1c3      0x3a3 /opt/wonderful/toolchain/gcc-arm-none-eabi/lib/gcc/arm-none-eabi/14.2.0/thumb/arm946e-s/libgcc.a(_udivmoddi4.o)

.debug_abbrev   0x00000000     0x57db
 *(.debug_abbrev)
 .debug_abbrev  0x00000000       0x28 /opt/wonderful/toolchain/gcc-arm-none-eabi/lib/gcc/arm-none-eabi/14.2.0/../../../../arm-none-eabi/lib/thumb/arm946e-s/libc.a(strcmp.S.o)
 .debug_abbrev  0x00000028       0x28 /opt/wonderful/toolchain/gcc-arm-none-eabi/lib/gcc/arm-none-eabi/14.2.0/../../../../arm-none-eabi/lib/thumb/arm946e-s/libc.a(strlen.S.o)
 .debug_abbrev  0x00000050      0x18a /opt/wonderful/toolchain/gcc-arm-none-eabi/lib/gcc/arm-none-eabi/14.2.0/../../../../arm-none-eabi/lib/thumb/arm946e-s/libc.a(malloc-calloc.c.o)
 .debug_abbrev  0x000001da      0x1d9 /opt/wonderful/toolchain/gcc-arm-none-eabi/lib/gcc/arm-none-eabi/14.2.0/../../../../arm-none-eabi/lib/thumb/arm946e-s/libc.a(malloc-free.c.o)
 .debug_abbrev  0x000003b3      0x235 /opt/wonderful/toolchain/gcc-arm-none-eabi/lib/gcc/arm-none-eabi/14.2.0/../../../../arm-none-eabi/lib/thumb/arm946e-s/libc.a(malloc-malloc.c.o)
 .debug_abbrev  0x000005e8      0x1e6 /opt/wonderful/toolchain/gcc-arm-none-eabi/lib/gcc/arm-none-eabi/14.2.0/../../../../arm-none-eabi/lib/thumb/arm946e-s/libc.a(malloc-realloc.c.o)
 .debug_abbrev  0x000007ce       0x48 /opt/wonderful/toolchain/gcc-arm-none-eabi/lib/gcc/arm-none-eabi/14.2.0/../../../../arm-none-eabi/lib/thumb/arm946e-s/libc.a(libc_errno_errno.c.o)
 .debug_abbrev  0x00000816       0xc9 /opt/wonderful/toolchain/gcc-arm-none-eabi/lib/gcc/arm-none-eabi/14.2.0/../../../../arm-none-eabi/lib/thumb/arm946e-s/libc.a(libc_misc_init.c.o)
 .debug_abbrev  0x000008df       0xd4 /opt/wonderful/toolchain/gcc-arm-none-eabi/lib/gcc/arm-none-eabi/14.2.0/../../../../arm-none-eabi/lib/thumb/arm946e-s/libc.a(libc_stdlib_pico-exit.c.o)
 .debug_abbrev  0x000009b3       0x90 /opt/wonderful/toolchain/gcc-arm-none-eabi/lib/gcc/arm-none-eabi/14.2.0/../../../../arm-none-eabi/lib/thumb/arm946e-s/libc.a(libc_string_memcmp.c.o)
 .debug_abbrev  0x00000a43       0x82 /opt/wonderful/toolchain/gcc-arm-none-eabi/lib/gcc/arm-none-eabi/14.2.0/../../../../arm-none-eabi/lib/thumb/arm946e-s/libc.a(libc_string_strchr.c.o)
 .debug_abbrev  0x00000ac5       0xfb /opt/wonderful/toolchain/gcc-arm-none-eabi/lib/gcc/arm-none-eabi/14.2.0/../../../../arm-none-eabi/lib/thumb/arm946e-s/libc.a(libc_string_strdup.c.o)
 .debug_abbrev  0x00000bc0       0x7b /opt/wonderful/toolchain/gcc-arm-none-eabi/lib/gcc/arm-none-eabi/14.2.0/../../../../arm-none-eabi/lib/thumb/arm946e-s/libc.a(libc_string_strncmp.c.o)
 .debug_abbrev  0x00000c3b       0xa1 /opt/wonderful/toolchain/gcc-arm-none-eabi/lib/gcc/arm-none-eabi/14.2.0/../../../../arm-none-eabi/lib/thumb/arm946e-s/libc.a(libc_string_strstr.c.o)
 .debug_abbrev  0x00000cdc       0xf7 /opt/wonderful/toolchain/gcc-arm-none-eabi/lib/gcc/arm-none-eabi/14.2.0/../../../../arm-none-eabi/lib/thumb/arm946e-s/libc.a(libc_time_lcltime.c.o)
 .debug_abbrev  0x00000dd3      0x236 /opt/wonderful/toolchain/gcc-arm-none-eabi/lib/gcc/arm-none-eabi/14.2.0/../../../../arm-none-eabi/lib/thumb/arm946e-s/libc.a(libc_time_lcltime_r.c.o)
 .debug_abbrev  0x00001009       0x5d /opt/wonderful/toolchain/gcc-arm-none-eabi/lib/gcc/arm-none-eabi/14.2.0/../../../../arm-none-eabi/lib/thumb/arm946e-s/libc.a(libc_time_lcltime_buf.c.o)
 .debug_abbrev  0x00001066       0x70 /opt/wonderful/toolchain/gcc-arm-none-eabi/lib/gcc/arm-none-eabi/14.2.0/../../../../arm-none-eabi/lib/thumb/arm946e-s/libc.a(libc_time_month_lengths.c.o)
 .debug_abbrev  0x000010d6       0xf5 /opt/wonderful/toolchain/gcc-arm-none-eabi/lib/gcc/arm-none-eabi/14.2.0/../../../../arm-none-eabi/lib/thumb/arm946e-s/libc.a(libc_time_time.c.o)
 .debug_abbrev  0x000011cb      0x1bb /opt/wonderful/toolchain/gcc-arm-none-eabi/lib/gcc/arm-none-eabi/14.2.0/../../../../arm-none-eabi/lib/thumb/arm946e-s/libc.a(libc_time_tzcalc_limits.c.o)
 .debug_abbrev  0x00001386      0x201 /opt/wonderful/toolchain/gcc-arm-none-eabi/lib/gcc/arm-none-eabi/14.2.0/../../../../arm-none-eabi/lib/thumb/arm946e-s/libc.a(libc_time_tzset.c.o)
 .debug_abbrev  0x00001587       0x65 /opt/wonderful/toolchain/gcc-arm-none-eabi/lib/gcc/arm-none-eabi/14.2.0/../../../../arm-none-eabi/lib/thumb/arm946e-s/libc.a(libc_time_tzvars.c.o)
 .debug_abbrev  0x000015ec       0xe2 /opt/wonderful/toolchain/gcc-arm-none-eabi/lib/gcc/arm-none-eabi/14.2.0/../../../../arm-none-eabi/lib/thumb/arm946e-s/libc.a(libc_tinystdio_fclose.c.o)
 .debug_abbrev  0x000016ce       0xca /opt/wonderful/toolchain/gcc-arm-none-eabi/lib/gcc/arm-none-eabi/14.2.0/../../../../arm-none-eabi/lib/thumb/arm946e-s/libc.a(libc_tinystdio_fflush.c.o)
 .debug_abbrev  0x00001798      0x12a /opt/wonderful/toolchain/gcc-arm-none-eabi/lib/gcc/arm-none-eabi/14.2.0/../../../../arm-none-eabi/lib/thumb/arm946e-s/libc.a(libc_tinystdio_fileno.c.o)
 .debug_abbrev  0x000018c2      0x2b4 /opt/wonderful/toolchain/gcc-arm-none-eabi/lib/gcc/arm-none-eabi/14.2.0/../../../../arm-none-eabi/lib/thumb/arm946e-s/libc.a(libc_tinystdio_fread.c.o)
 .debug_abbrev  0x00001b76      0x119 /opt/wonderful/toolchain/gcc-arm-none-eabi/lib/gcc/arm-none-eabi/14.2.0/../../../../arm-none-eabi/lib/thumb/arm946e-s/libc.a(libc_tinystdio_fseek.c.o)
 .debug_abbrev  0x00001c8f      0x130 /opt/wonderful/toolchain/gcc-arm-none-eabi/lib/gcc/arm-none-eabi/14.2.0/../../../../arm-none-eabi/lib/thumb/arm946e-s/libc.a(libc_tinystdio_ftell.c.o)
 .debug_abbrev  0x00001dbf      0x147 /opt/wonderful/toolchain/gcc-arm-none-eabi/lib/gcc/arm-none-eabi/14.2.0/../../../../arm-none-eabi/lib/thumb/arm946e-s/libc.a(libc_tinystdio_printf.c.o)
 .debug_abbrev  0x00001f06       0xfd /opt/wonderful/toolchain/gcc-arm-none-eabi/lib/gcc/arm-none-eabi/14.2.0/../../../../arm-none-eabi/lib/thumb/arm946e-s/libc.a(libc_tinystdio_putchar.c.o)
 .debug_abbrev  0x00002003      0x113 /opt/wonderful/toolchain/gcc-arm-none-eabi/lib/gcc/arm-none-eabi/14.2.0/../../../../arm-none-eabi/lib/thumb/arm946e-s/libc.a(libc_tinystdio_puts.c.o)
 .debug_abbrev  0x00002116       0xe1 /opt/wonderful/toolchain/gcc-arm-none-eabi/lib/gcc/arm-none-eabi/14.2.0/../../../../arm-none-eabi/lib/thumb/arm946e-s/libc.a(libc_tinystdio_rewind.c.o)
 .debug_abbrev  0x000021f7       0xfb /opt/wonderful/toolchain/gcc-arm-none-eabi/lib/gcc/arm-none-eabi/14.2.0/../../../../arm-none-eabi/lib/thumb/arm946e-s/libc.a(libc_tinystdio_setvbuf.c.o)
 .debug_abbrev  0x000022f2      0x167 /opt/wonderful/toolchain/gcc-arm-none-eabi/lib/gcc/arm-none-eabi/14.2.0/../../../../arm-none-eabi/lib/thumb/arm946e-s/libc.a(libc_tinystdio_snprintf.c.o)
 .debug_abbrev  0x00002459      0x17c /opt/wonderful/toolchain/gcc-arm-none-eabi/lib/gcc/arm-none-eabi/14.2.0/../../../../arm-none-eabi/lib/thumb/arm946e-s/libc.a(libc_tinystdio_sscanf.c.o)
 .debug_abbrev  0x000025d5      0x132 /opt/wonderful/toolchain/gcc-arm-none-eabi/lib/gcc/arm-none-eabi/14.2.0/../../../../arm-none-eabi/lib/thumb/arm946e-s/libc.a(libc_tinystdio_strtoul.c.o)
 .debug_abbrev  0x00002707      0x2d4 /opt/wonderful/toolchain/gcc-arm-none-eabi/lib/gcc/arm-none-eabi/14.2.0/../../../../arm-none-eabi/lib/thumb/arm946e-s/libc.a(libc_tinystdio_vfprintf.c.o)
 .debug_abbrev  0x000029db      0x4bc /opt/wonderful/toolchain/gcc-arm-none-eabi/lib/gcc/arm-none-eabi/14.2.0/../../../../arm-none-eabi/lib/thumb/arm946e-s/libc.a(libc_tinystdio_vfscanf.c.o)
 .debug_abbrev  0x00002e97      0x24a /opt/wonderful/toolchain/gcc-arm-none-eabi/lib/gcc/arm-none-eabi/14.2.0/../../../../arm-none-eabi/lib/thumb/arm946e-s/libc.a(libc_tinystdio_atod_ryu.c.o)
 .debug_abbrev  0x000030e1      0x1ef /opt/wonderful/toolchain/gcc-arm-none-eabi/lib/gcc/arm-none-eabi/14.2.0/../../../../arm-none-eabi/lib/thumb/arm946e-s/libc.a(libc_tinystdio_atof_ryu.c.o)
 .debug_abbrev  0x000032d0      0x386 /opt/wonderful/toolchain/gcc-arm-none-eabi/lib/gcc/arm-none-eabi/14.2.0/../../../../arm-none-eabi/lib/thumb/arm946e-s/libc.a(libc_tinystdio_dtoa_ryu.c.o)
 .debug_abbrev  0x00003656      0x176 /opt/wonderful/toolchain/gcc-arm-none-eabi/lib/gcc/arm-none-eabi/14.2.0/../../../../arm-none-eabi/lib/thumb/arm946e-s/libc.a(libc_tinystdio_ryu_divpow2.c.o)
 .debug_abbrev  0x000037cc       0x8e /opt/wonderful/toolchain/gcc-arm-none-eabi/lib/gcc/arm-none-eabi/14.2.0/../../../../arm-none-eabi/lib/thumb/arm946e-s/libc.a(libc_tinystdio_ryu_log10.c.o)
 .debug_abbrev  0x0000385a       0xc6 /opt/wonderful/toolchain/gcc-arm-none-eabi/lib/gcc/arm-none-eabi/14.2.0/../../../../arm-none-eabi/lib/thumb/arm946e-s/libc.a(libc_tinystdio_ryu_log2pow5.c.o)
 .debug_abbrev  0x00003920       0x6f /opt/wonderful/toolchain/gcc-arm-none-eabi/lib/gcc/arm-none-eabi/14.2.0/../../../../arm-none-eabi/lib/thumb/arm946e-s/libc.a(libc_tinystdio_ryu_pow5bits.c.o)
 .debug_abbrev  0x0000398f      0x16f /opt/wonderful/toolchain/gcc-arm-none-eabi/lib/gcc/arm-none-eabi/14.2.0/../../../../arm-none-eabi/lib/thumb/arm946e-s/libc.a(libc_tinystdio_ryu_table.c.o)
 .debug_abbrev  0x00003afe       0xe2 /opt/wonderful/toolchain/gcc-arm-none-eabi/lib/gcc/arm-none-eabi/14.2.0/../../../../arm-none-eabi/lib/thumb/arm946e-s/libc.a(libc_tinystdio_ryu_umul128.c.o)
 .debug_abbrev  0x00003be0       0xeb /opt/wonderful/toolchain/gcc-arm-none-eabi/lib/gcc/arm-none-eabi/14.2.0/../../../../arm-none-eabi/lib/thumb/arm946e-s/libc.a(libc_tinystdio_exchange.c.o)
 .debug_abbrev  0x00003ccb      0x206 /opt/wonderful/toolchain/gcc-arm-none-eabi/lib/gcc/arm-none-eabi/14.2.0/../../../../arm-none-eabi/lib/thumb/arm946e-s/libc.a(libc_tinystdio_fdopen.c.o)
 .debug_abbrev  0x00003ed1      0x14c /opt/wonderful/toolchain/gcc-arm-none-eabi/lib/gcc/arm-none-eabi/14.2.0/../../../../arm-none-eabi/lib/thumb/arm946e-s/libc.a(libc_tinystdio_fopen.c.o)
 .debug_abbrev  0x0000401d       0xac /opt/wonderful/toolchain/gcc-arm-none-eabi/lib/gcc/arm-none-eabi/14.2.0/../../../../arm-none-eabi/lib/thumb/arm946e-s/libc.a(memmove.c.o)
 .debug_abbrev  0x000040c9       0xc9 /opt/wonderful/toolchain/gcc-arm-none-eabi/lib/gcc/arm-none-eabi/14.2.0/../../../../arm-none-eabi/lib/thumb/arm946e-s/libc.a(libc_misc_fini.c.o)
 .debug_abbrev  0x00004192       0xab /opt/wonderful/toolchain/gcc-arm-none-eabi/lib/gcc/arm-none-eabi/14.2.0/../../../../arm-none-eabi/lib/thumb/arm946e-s/libc.a(libc_stdlib_getenv.c.o)
 .debug_abbrev  0x0000423d      0x10e /opt/wonderful/toolchain/gcc-arm-none-eabi/lib/gcc/arm-none-eabi/14.2.0/../../../../arm-none-eabi/lib/thumb/arm946e-s/libc.a(libc_stdlib_getenv_r.c.o)
 .debug_abbrev  0x0000434b       0x8f /opt/wonderful/toolchain/gcc-arm-none-eabi/lib/gcc/arm-none-eabi/14.2.0/../../../../arm-none-eabi/lib/thumb/arm946e-s/libc.a(libc_string_strnlen.c.o)
 .debug_abbrev  0x000043da       0xc6 /opt/wonderful/toolchain/gcc-arm-none-eabi/lib/gcc/arm-none-eabi/14.2.0/../../../../arm-none-eabi/lib/thumb/arm946e-s/libc.a(libc_time_gettzinfo.c.o)
 .debug_abbrev  0x000044a0      0x150 /opt/wonderful/toolchain/gcc-arm-none-eabi/lib/gcc/arm-none-eabi/14.2.0/../../../../arm-none-eabi/lib/thumb/arm946e-s/libc.a(libc_time_gmtime_r.c.o)
 .debug_abbrev  0x000045f0       0xc5 /opt/wonderful/toolchain/gcc-arm-none-eabi/lib/gcc/arm-none-eabi/14.2.0/../../../../arm-none-eabi/lib/thumb/arm946e-s/libc.a(libc_tinystdio_atomic_load.c.o)
 .debug_abbrev  0x000046b5      0x35a /opt/wonderful/toolchain/gcc-arm-none-eabi/lib/gcc/arm-none-eabi/14.2.0/../../../../arm-none-eabi/lib/thumb/arm946e-s/libc.a(libc_tinystdio_bufio.c.o)
 .debug_abbrev  0x00004a0f      0x1a1 /opt/wonderful/toolchain/gcc-arm-none-eabi/lib/gcc/arm-none-eabi/14.2.0/../../../../arm-none-eabi/lib/thumb/arm946e-s/libc.a(libc_tinystdio_dtox_engine.c.o)
 .debug_abbrev  0x00004bb0      0x114 /opt/wonderful/toolchain/gcc-arm-none-eabi/lib/gcc/arm-none-eabi/14.2.0/../../../../arm-none-eabi/lib/thumb/arm946e-s/libc.a(libc_tinystdio_fgetc.c.o)
 .debug_abbrev  0x00004cc4       0xe2 /opt/wonderful/toolchain/gcc-arm-none-eabi/lib/gcc/arm-none-eabi/14.2.0/../../../../arm-none-eabi/lib/thumb/arm946e-s/libc.a(libc_tinystdio_filestrget.c.o)
 .debug_abbrev  0x00004da6       0xdc /opt/wonderful/toolchain/gcc-arm-none-eabi/lib/gcc/arm-none-eabi/14.2.0/../../../../arm-none-eabi/lib/thumb/arm946e-s/libc.a(libc_tinystdio_filestrput.c.o)
 .debug_abbrev  0x00004e82       0xde /opt/wonderful/toolchain/gcc-arm-none-eabi/lib/gcc/arm-none-eabi/14.2.0/../../../../arm-none-eabi/lib/thumb/arm946e-s/libc.a(libc_tinystdio_fputc.c.o)
 .debug_abbrev  0x00004f60      0x119 /opt/wonderful/toolchain/gcc-arm-none-eabi/lib/gcc/arm-none-eabi/14.2.0/../../../../arm-none-eabi/lib/thumb/arm946e-s/libc.a(libc_tinystdio_fseeko.c.o)
 .debug_abbrev  0x00005079       0xa5 /opt/wonderful/toolchain/gcc-arm-none-eabi/lib/gcc/arm-none-eabi/14.2.0/../../../../arm-none-eabi/lib/thumb/arm946e-s/libc.a(libc_tinystdio_sflags.c.o)
 .debug_abbrev  0x0000511e       0xf7 /opt/wonderful/toolchain/gcc-arm-none-eabi/lib/gcc/arm-none-eabi/14.2.0/../../../../arm-none-eabi/lib/thumb/arm946e-s/libc.a(libc_tinystdio_ungetc.c.o)
 .debug_abbrev  0x00005215       0xcb /opt/wonderful/toolchain/gcc-arm-none-eabi/lib/gcc/arm-none-eabi/14.2.0/../../../../arm-none-eabi/lib/thumb/arm946e-s/libc.a(libc_tinystdio_compare_exchange.c.o)
 .debug_abbrev  0x000052e0       0x5b /opt/wonderful/toolchain/gcc-arm-none-eabi/lib/gcc/arm-none-eabi/14.2.0/../../../../arm-none-eabi/lib/thumb/arm946e-s/libc.a(libc_stdlib_environ.c.o)
 .debug_abbrev  0x0000533b       0x28 /opt/wonderful/toolchain/gcc-arm-none-eabi/lib/gcc/arm-none-eabi/14.2.0/thumb/arm946e-s/libgcc.a(_thumb1_case_uqi.o)
 .debug_abbrev  0x00005363       0x28 /opt/wonderful/toolchain/gcc-arm-none-eabi/lib/gcc/arm-none-eabi/14.2.0/thumb/arm946e-s/libgcc.a(_thumb1_case_uhi.o)
 .debug_abbrev  0x0000538b       0x28 /opt/wonderful/toolchain/gcc-arm-none-eabi/lib/gcc/arm-none-eabi/14.2.0/thumb/arm946e-s/libgcc.a(_udivsi3.o)
 .debug_abbrev  0x000053b3       0x28 /opt/wonderful/toolchain/gcc-arm-none-eabi/lib/gcc/arm-none-eabi/14.2.0/thumb/arm946e-s/libgcc.a(_divsi3.o)
 .debug_abbrev  0x000053db       0x26 /opt/wonderful/toolchain/gcc-arm-none-eabi/lib/gcc/arm-none-eabi/14.2.0/thumb/arm946e-s/libgcc.a(_dvmd_tls.o)
 .debug_abbrev  0x00005401       0x28 /opt/wonderful/toolchain/gcc-arm-none-eabi/lib/gcc/arm-none-eabi/14.2.0/thumb/arm946e-s/libgcc.a(_lshrdi3.o)
 .debug_abbrev  0x00005429       0x28 /opt/wonderful/toolchain/gcc-arm-none-eabi/lib/gcc/arm-none-eabi/14.2.0/thumb/arm946e-s/libgcc.a(_ashrdi3.o)
 .debug_abbrev  0x00005451       0x28 /opt/wonderful/toolchain/gcc-arm-none-eabi/lib/gcc/arm-none-eabi/14.2.0/thumb/arm946e-s/libgcc.a(_ashldi3.o)
 .debug_abbrev  0x00005479       0x28 /opt/wonderful/toolchain/gcc-arm-none-eabi/lib/gcc/arm-none-eabi/14.2.0/thumb/arm946e-s/libgcc.a(_arm_addsubdf3.o)
 .debug_abbrev  0x000054a1       0x28 /opt/wonderful/toolchain/gcc-arm-none-eabi/lib/gcc/arm-none-eabi/14.2.0/thumb/arm946e-s/libgcc.a(_arm_cmpdf2.o)
 .debug_abbrev  0x000054c9       0x28 /opt/wonderful/toolchain/gcc-arm-none-eabi/lib/gcc/arm-none-eabi/14.2.0/thumb/arm946e-s/libgcc.a(_arm_truncdfsf2.o)
 .debug_abbrev  0x000054f1       0x28 /opt/wonderful/toolchain/gcc-arm-none-eabi/lib/gcc/arm-none-eabi/14.2.0/thumb/arm946e-s/libgcc.a(_clzsi2.o)
 .debug_abbrev  0x00005519       0x28 /opt/wonderful/toolchain/gcc-arm-none-eabi/lib/gcc/arm-none-eabi/14.2.0/thumb/arm946e-s/libgcc.a(_clzdi2.o)
 .debug_abbrev  0x00005541       0x14 /opt/wonderful/toolchain/gcc-arm-none-eabi/lib/gcc/arm-none-eabi/14.2.0/thumb/arm946e-s/libgcc.a(_aeabi_ldivmod.o)
 .debug_abbrev  0x00005555       0x14 /opt/wonderful/toolchain/gcc-arm-none-eabi/lib/gcc/arm-none-eabi/14.2.0/thumb/arm946e-s/libgcc.a(_aeabi_uldivmod.o)
 .debug_abbrev  0x00005569      0x152 /opt/wonderful/toolchain/gcc-arm-none-eabi/lib/gcc/arm-none-eabi/14.2.0/thumb/arm946e-s/libgcc.a(_muldi3.o)
 .debug_abbrev  0x000056bb      0x120 /opt/wonderful/toolchain/gcc-arm-none-eabi/lib/gcc/arm-none-eabi/14.2.0/thumb/arm946e-s/libgcc.a(_udivmoddi4.o)

.debug_line     0x00000000     0xb2af
 *(.debug_line .debug_line.* .debug_line_end)
 .debug_line    0x00000000       0x52 /opt/wonderful/toolchain/gcc-arm-none-eabi/lib/gcc/arm-none-eabi/14.2.0/../../../../arm-none-eabi/lib/thumb/arm946e-s/libc.a(strcmp.S.o)
 .debug_line    0x00000052       0x4f /opt/wonderful/toolchain/gcc-arm-none-eabi/lib/gcc/arm-none-eabi/14.2.0/../../../../arm-none-eabi/lib/thumb/arm946e-s/libc.a(strlen.S.o)
 .debug_line    0x000000a1      0x23a /opt/wonderful/toolchain/gcc-arm-none-eabi/lib/gcc/arm-none-eabi/14.2.0/../../../../arm-none-eabi/lib/thumb/arm946e-s/libc.a(malloc-calloc.c.o)
 .debug_line    0x000002db      0x462 /opt/wonderful/toolchain/gcc-arm-none-eabi/lib/gcc/arm-none-eabi/14.2.0/../../../../arm-none-eabi/lib/thumb/arm946e-s/libc.a(malloc-free.c.o)
 .debug_line    0x0000073d      0x7f2 /opt/wonderful/toolchain/gcc-arm-none-eabi/lib/gcc/arm-none-eabi/14.2.0/../../../../arm-none-eabi/lib/thumb/arm946e-s/libc.a(malloc-malloc.c.o)
 .debug_line    0x00000f2f      0x71d /opt/wonderful/toolchain/gcc-arm-none-eabi/lib/gcc/arm-none-eabi/14.2.0/../../../../arm-none-eabi/lib/thumb/arm946e-s/libc.a(malloc-realloc.c.o)
 .debug_line    0x0000164c       0x7b /opt/wonderful/toolchain/gcc-arm-none-eabi/lib/gcc/arm-none-eabi/14.2.0/../../../../arm-none-eabi/lib/thumb/arm946e-s/libc.a(libc_errno_errno.c.o)
 .debug_line    0x000016c7      0x161 /opt/wonderful/toolchain/gcc-arm-none-eabi/lib/gcc/arm-none-eabi/14.2.0/../../../../arm-none-eabi/lib/thumb/arm946e-s/libc.a(libc_misc_init.c.o)
 .debug_line    0x00001828       0xaa /opt/wonderful/toolchain/gcc-arm-none-eabi/lib/gcc/arm-none-eabi/14.2.0/../../../../arm-none-eabi/lib/thumb/arm946e-s/libc.a(libc_stdlib_pico-exit.c.o)
 .debug_line    0x000018d2       0xf2 /opt/wonderful/toolchain/gcc-arm-none-eabi/lib/gcc/arm-none-eabi/14.2.0/../../../../arm-none-eabi/lib/thumb/arm946e-s/libc.a(libc_string_memcmp.c.o)
 .debug_line    0x000019c4       0x91 /opt/wonderful/toolchain/gcc-arm-none-eabi/lib/gcc/arm-none-eabi/14.2.0/../../../../arm-none-eabi/lib/thumb/arm946e-s/libc.a(libc_string_strchr.c.o)
 .debug_line    0x00001a55      0x12f /opt/wonderful/toolchain/gcc-arm-none-eabi/lib/gcc/arm-none-eabi/14.2.0/../../../../arm-none-eabi/lib/thumb/arm946e-s/libc.a(libc_string_strdup.c.o)
 .debug_line    0x00001b84      0x103 /opt/wonderful/toolchain/gcc-arm-none-eabi/lib/gcc/arm-none-eabi/14.2.0/../../../../arm-none-eabi/lib/thumb/arm946e-s/libc.a(libc_string_strncmp.c.o)
 .debug_line    0x00001c87      0x12b /opt/wonderful/toolchain/gcc-arm-none-eabi/lib/gcc/arm-none-eabi/14.2.0/../../../../arm-none-eabi/lib/thumb/arm946e-s/libc.a(libc_string_strstr.c.o)
 .debug_line    0x00001db2      0x11c /opt/wonderful/toolchain/gcc-arm-none-eabi/lib/gcc/arm-none-eabi/14.2.0/../../../../arm-none-eabi/lib/thumb/arm946e-s/libc.a(libc_time_lcltime.c.o)
 .debug_line    0x00001ece      0x406 /opt/wonderful/toolchain/gcc-arm-none-eabi/lib/gcc/arm-none-eabi/14.2.0/../../../../arm-none-eabi/lib/thumb/arm946e-s/libc.a(libc_time_lcltime_r.c.o)
 .debug_line    0x000022d4       0x7b /opt/wonderful/toolchain/gcc-arm-none-eabi/lib/gcc/arm-none-eabi/14.2.0/../../../../arm-none-eabi/lib/thumb/arm946e-s/libc.a(libc_time_lcltime_buf.c.o)
 .debug_line    0x0000234f       0xce /opt/wonderful/toolchain/gcc-arm-none-eabi/lib/gcc/arm-none-eabi/14.2.0/../../../../arm-none-eabi/lib/thumb/arm946e-s/libc.a(libc_time_month_lengths.c.o)
 .debug_line    0x0000241d      0x129 /opt/wonderful/toolchain/gcc-arm-none-eabi/lib/gcc/arm-none-eabi/14.2.0/../../../../arm-none-eabi/lib/thumb/arm946e-s/libc.a(libc_time_time.c.o)
 .debug_line    0x00002546      0x316 /opt/wonderful/toolchain/gcc-arm-none-eabi/lib/gcc/arm-none-eabi/14.2.0/../../../../arm-none-eabi/lib/thumb/arm946e-s/libc.a(libc_time_tzcalc_limits.c.o)
 .debug_line    0x0000285c      0x5fa /opt/wonderful/toolchain/gcc-arm-none-eabi/lib/gcc/arm-none-eabi/14.2.0/../../../../arm-none-eabi/lib/thumb/arm946e-s/libc.a(libc_time_tzset.c.o)
 .debug_line    0x00002e56       0x76 /opt/wonderful/toolchain/gcc-arm-none-eabi/lib/gcc/arm-none-eabi/14.2.0/../../../../arm-none-eabi/lib/thumb/arm946e-s/libc.a(libc_time_tzvars.c.o)
 .debug_line    0x00002ecc      0x106 /opt/wonderful/toolchain/gcc-arm-none-eabi/lib/gcc/arm-none-eabi/14.2.0/../../../../arm-none-eabi/lib/thumb/arm946e-s/libc.a(libc_tinystdio_fclose.c.o)
 .debug_line    0x00002fd2       0xf3 /opt/wonderful/toolchain/gcc-arm-none-eabi/lib/gcc/arm-none-eabi/14.2.0/../../../../arm-none-eabi/lib/thumb/arm946e-s/libc.a(libc_tinystdio_fflush.c.o)
 .debug_line    0x000030c5      0x1b2 /opt/wonderful/toolchain/gcc-arm-none-eabi/lib/gcc/arm-none-eabi/14.2.0/../../../../arm-none-eabi/lib/thumb/arm946e-s/libc.a(libc_tinystdio_fileno.c.o)
 .debug_line    0x00003277      0x41b /opt/wonderful/toolchain/gcc-arm-none-eabi/lib/gcc/arm-none-eabi/14.2.0/../../../../arm-none-eabi/lib/thumb/arm946e-s/libc.a(libc_tinystdio_fread.c.o)
 .debug_line    0x00003692      0x1eb /opt/wonderful/toolchain/gcc-arm-none-eabi/lib/gcc/arm-none-eabi/14.2.0/../../../../arm-none-eabi/lib/thumb/arm946e-s/libc.a(libc_tinystdio_fseek.c.o)
 .debug_line    0x0000387d      0x1d9 /opt/wonderful/toolchain/gcc-arm-none-eabi/lib/gcc/arm-none-eabi/14.2.0/../../../../arm-none-eabi/lib/thumb/arm946e-s/libc.a(libc_tinystdio_ftell.c.o)
 .debug_line    0x00003a56      0x165 /opt/wonderful/toolchain/gcc-arm-none-eabi/lib/gcc/arm-none-eabi/14.2.0/../../../../arm-none-eabi/lib/thumb/arm946e-s/libc.a(libc_tinystdio_printf.c.o)
 .debug_line    0x00003bbb       0xeb /opt/wonderful/toolchain/gcc-arm-none-eabi/lib/gcc/arm-none-eabi/14.2.0/../../../../arm-none-eabi/lib/thumb/arm946e-s/libc.a(libc_tinystdio_putchar.c.o)
 .debug_line    0x00003ca6      0x14c /opt/wonderful/toolchain/gcc-arm-none-eabi/lib/gcc/arm-none-eabi/14.2.0/../../../../arm-none-eabi/lib/thumb/arm946e-s/libc.a(libc_tinystdio_puts.c.o)
 .debug_line    0x00003df2       0xee /opt/wonderful/toolchain/gcc-arm-none-eabi/lib/gcc/arm-none-eabi/14.2.0/../../../../arm-none-eabi/lib/thumb/arm946e-s/libc.a(libc_tinystdio_rewind.c.o)
 .debug_line    0x00003ee0      0x195 /opt/wonderful/toolchain/gcc-arm-none-eabi/lib/gcc/arm-none-eabi/14.2.0/../../../../arm-none-eabi/lib/thumb/arm946e-s/libc.a(libc_tinystdio_setvbuf.c.o)
 .debug_line    0x00004075      0x1cb /opt/wonderful/toolchain/gcc-arm-none-eabi/lib/gcc/arm-none-eabi/14.2.0/../../../../arm-none-eabi/lib/thumb/arm946e-s/libc.a(libc_tinystdio_snprintf.c.o)
 .debug_line    0x00004240      0x191 /opt/wonderful/toolchain/gcc-arm-none-eabi/lib/gcc/arm-none-eabi/14.2.0/../../../../arm-none-eabi/lib/thumb/arm946e-s/libc.a(libc_tinystdio_sscanf.c.o)
 .debug_line    0x000043d1      0x2b8 /opt/wonderful/toolchain/gcc-arm-none-eabi/lib/gcc/arm-none-eabi/14.2.0/../../../../arm-none-eabi/lib/thumb/arm946e-s/libc.a(libc_tinystdio_strtoul.c.o)
 .debug_line    0x00004689     0x1071 /opt/wonderful/toolchain/gcc-arm-none-eabi/lib/gcc/arm-none-eabi/14.2.0/../../../../arm-none-eabi/lib/thumb/arm946e-s/libc.a(libc_tinystdio_vfprintf.c.o)
 .debug_line    0x000056fa     0x117e /opt/wonderful/toolchain/gcc-arm-none-eabi/lib/gcc/arm-none-eabi/14.2.0/../../../../arm-none-eabi/lib/thumb/arm946e-s/libc.a(libc_tinystdio_vfscanf.c.o)
 .debug_line    0x00006878      0x3e2 /opt/wonderful/toolchain/gcc-arm-none-eabi/lib/gcc/arm-none-eabi/14.2.0/../../../../arm-none-eabi/lib/thumb/arm946e-s/libc.a(libc_tinystdio_atod_ryu.c.o)
 .debug_line    0x00006c5a      0x3ad /opt/wonderful/toolchain/gcc-arm-none-eabi/lib/gcc/arm-none-eabi/14.2.0/../../../../arm-none-eabi/lib/thumb/arm946e-s/libc.a(libc_tinystdio_atof_ryu.c.o)
 .debug_line    0x00007007      0x982 /opt/wonderful/toolchain/gcc-arm-none-eabi/lib/gcc/arm-none-eabi/14.2.0/../../../../arm-none-eabi/lib/thumb/arm946e-s/libc.a(libc_tinystdio_dtoa_ryu.c.o)
 .debug_line    0x00007989      0x1ee /opt/wonderful/toolchain/gcc-arm-none-eabi/lib/gcc/arm-none-eabi/14.2.0/../../../../arm-none-eabi/lib/thumb/arm946e-s/libc.a(libc_tinystdio_ryu_divpow2.c.o)
 .debug_line    0x00007b77      0x118 /opt/wonderful/toolchain/gcc-arm-none-eabi/lib/gcc/arm-none-eabi/14.2.0/../../../../arm-none-eabi/lib/thumb/arm946e-s/libc.a(libc_tinystdio_ryu_log10.c.o)
 .debug_line    0x00007c8f      0x12c /opt/wonderful/toolchain/gcc-arm-none-eabi/lib/gcc/arm-none-eabi/14.2.0/../../../../arm-none-eabi/lib/thumb/arm946e-s/libc.a(libc_tinystdio_ryu_log2pow5.c.o)
 .debug_line    0x00007dbb       0xf4 /opt/wonderful/toolchain/gcc-arm-none-eabi/lib/gcc/arm-none-eabi/14.2.0/../../../../arm-none-eabi/lib/thumb/arm946e-s/libc.a(libc_tinystdio_ryu_pow5bits.c.o)
 .debug_line    0x00007eaf      0x399 /opt/wonderful/toolchain/gcc-arm-none-eabi/lib/gcc/arm-none-eabi/14.2.0/../../../../arm-none-eabi/lib/thumb/arm946e-s/libc.a(libc_tinystdio_ryu_table.c.o)
 .debug_line    0x00008248      0x1a4 /opt/wonderful/toolchain/gcc-arm-none-eabi/lib/gcc/arm-none-eabi/14.2.0/../../../../arm-none-eabi/lib/thumb/arm946e-s/libc.a(libc_tinystdio_ryu_umul128.c.o)
 .debug_line    0x000083ec      0x128 /opt/wonderful/toolchain/gcc-arm-none-eabi/lib/gcc/arm-none-eabi/14.2.0/../../../../arm-none-eabi/lib/thumb/arm946e-s/libc.a(libc_tinystdio_exchange.c.o)
 .debug_line    0x00008514      0x256 /opt/wonderful/toolchain/gcc-arm-none-eabi/lib/gcc/arm-none-eabi/14.2.0/../../../../arm-none-eabi/lib/thumb/arm946e-s/libc.a(libc_tinystdio_fdopen.c.o)
 .debug_line    0x0000876a      0x15d /opt/wonderful/toolchain/gcc-arm-none-eabi/lib/gcc/arm-none-eabi/14.2.0/../../../../arm-none-eabi/lib/thumb/arm946e-s/libc.a(libc_tinystdio_fopen.c.o)
 .debug_line    0x000088c7      0x149 /opt/wonderful/toolchain/gcc-arm-none-eabi/lib/gcc/arm-none-eabi/14.2.0/../../../../arm-none-eabi/lib/thumb/arm946e-s/libc.a(memmove.c.o)
 .debug_line    0x00008a10      0x129 /opt/wonderful/toolchain/gcc-arm-none-eabi/lib/gcc/arm-none-eabi/14.2.0/../../../../arm-none-eabi/lib/thumb/arm946e-s/libc.a(libc_misc_fini.c.o)
 .debug_line    0x00008b39       0x99 /opt/wonderful/toolchain/gcc-arm-none-eabi/lib/gcc/arm-none-eabi/14.2.0/../../../../arm-none-eabi/lib/thumb/arm946e-s/libc.a(libc_stdlib_getenv.c.o)
 .debug_line    0x00008bd2      0x186 /opt/wonderful/toolchain/gcc-arm-none-eabi/lib/gcc/arm-none-eabi/14.2.0/../../../../arm-none-eabi/lib/thumb/arm946e-s/libc.a(libc_stdlib_getenv_r.c.o)
 .debug_line    0x00008d58       0xe0 /opt/wonderful/toolchain/gcc-arm-none-eabi/lib/gcc/arm-none-eabi/14.2.0/../../../../arm-none-eabi/lib/thumb/arm946e-s/libc.a(libc_string_strnlen.c.o)
 .debug_line    0x00008e38       0xed /opt/wonderful/toolchain/gcc-arm-none-eabi/lib/gcc/arm-none-eabi/14.2.0/../../../../arm-none-eabi/lib/thumb/arm946e-s/libc.a(libc_time_gettzinfo.c.o)
 .debug_line    0x00008f25      0x31c /opt/wonderful/toolchain/gcc-arm-none-eabi/lib/gcc/arm-none-eabi/14.2.0/../../../../arm-none-eabi/lib/thumb/arm946e-s/libc.a(libc_time_gmtime_r.c.o)
 .debug_line    0x00009241      0x110 /opt/wonderful/toolchain/gcc-arm-none-eabi/lib/gcc/arm-none-eabi/14.2.0/../../../../arm-none-eabi/lib/thumb/arm946e-s/libc.a(libc_tinystdio_atomic_load.c.o)
 .debug_line    0x00009351      0x865 /opt/wonderful/toolchain/gcc-arm-none-eabi/lib/gcc/arm-none-eabi/14.2.0/../../../../arm-none-eabi/lib/thumb/arm946e-s/libc.a(libc_tinystdio_bufio.c.o)
 .debug_line    0x00009bb6      0x2d5 /opt/wonderful/toolchain/gcc-arm-none-eabi/lib/gcc/arm-none-eabi/14.2.0/../../../../arm-none-eabi/lib/thumb/arm946e-s/libc.a(libc_tinystdio_dtox_engine.c.o)
 .debug_line    0x00009e8b      0x162 /opt/wonderful/toolchain/gcc-arm-none-eabi/lib/gcc/arm-none-eabi/14.2.0/../../../../arm-none-eabi/lib/thumb/arm946e-s/libc.a(libc_tinystdio_fgetc.c.o)
 .debug_line    0x00009fed      0x175 /opt/wonderful/toolchain/gcc-arm-none-eabi/lib/gcc/arm-none-eabi/14.2.0/../../../../arm-none-eabi/lib/thumb/arm946e-s/libc.a(libc_tinystdio_filestrget.c.o)
 .debug_line    0x0000a162      0x168 /opt/wonderful/toolchain/gcc-arm-none-eabi/lib/gcc/arm-none-eabi/14.2.0/../../../../arm-none-eabi/lib/thumb/arm946e-s/libc.a(libc_tinystdio_filestrput.c.o)
 .debug_line    0x0000a2ca      0x109 /opt/wonderful/toolchain/gcc-arm-none-eabi/lib/gcc/arm-none-eabi/14.2.0/../../../../arm-none-eabi/lib/thumb/arm946e-s/libc.a(libc_tinystdio_fputc.c.o)
 .debug_line    0x0000a3d3      0x1f9 /opt/wonderful/toolchain/gcc-arm-none-eabi/lib/gcc/arm-none-eabi/14.2.0/../../../../arm-none-eabi/lib/thumb/arm946e-s/libc.a(libc_tinystdio_fseeko.c.o)
 .debug_line    0x0000a5cc      0x10d /opt/wonderful/toolchain/gcc-arm-none-eabi/lib/gcc/arm-none-eabi/14.2.0/../../../../arm-none-eabi/lib/thumb/arm946e-s/libc.a(libc_tinystdio_sflags.c.o)
 .debug_line    0x0000a6d9      0x132 /opt/wonderful/toolchain/gcc-arm-none-eabi/lib/gcc/arm-none-eabi/14.2.0/../../../../arm-none-eabi/lib/thumb/arm946e-s/libc.a(libc_tinystdio_ungetc.c.o)
 .debug_line    0x0000a80b      0x111 /opt/wonderful/toolchain/gcc-arm-none-eabi/lib/gcc/arm-none-eabi/14.2.0/../../../../arm-none-eabi/lib/thumb/arm946e-s/libc.a(libc_tinystdio_compare_exchange.c.o)
 .debug_line    0x0000a91c       0x4c /opt/wonderful/toolchain/gcc-arm-none-eabi/lib/gcc/arm-none-eabi/14.2.0/../../../../arm-none-eabi/lib/thumb/arm946e-s/libc.a(libc_stdlib_environ.c.o)
 .debug_line    0x0000a968       0x52 /opt/wonderful/toolchain/gcc-arm-none-eabi/lib/gcc/arm-none-eabi/14.2.0/thumb/arm946e-s/libgcc.a(_thumb1_case_uqi.o)
 .debug_line    0x0000a9ba       0x53 /opt/wonderful/toolchain/gcc-arm-none-eabi/lib/gcc/arm-none-eabi/14.2.0/thumb/arm946e-s/libgcc.a(_thumb1_case_uhi.o)
 .debug_line    0x0000aa0d       0x67 /opt/wonderful/toolchain/gcc-arm-none-eabi/lib/gcc/arm-none-eabi/14.2.0/thumb/arm946e-s/libgcc.a(_udivsi3.o)
 .debug_line    0x0000aa74       0x73 /opt/wonderful/toolchain/gcc-arm-none-eabi/lib/gcc/arm-none-eabi/14.2.0/thumb/arm946e-s/libgcc.a(_divsi3.o)
 .debug_line    0x0000aae7       0x4a /opt/wonderful/toolchain/gcc-arm-none-eabi/lib/gcc/arm-none-eabi/14.2.0/thumb/arm946e-s/libgcc.a(_dvmd_tls.o)
 .debug_line    0x0000ab31       0x55 /opt/wonderful/toolchain/gcc-arm-none-eabi/lib/gcc/arm-none-eabi/14.2.0/thumb/arm946e-s/libgcc.a(_lshrdi3.o)
 .debug_line    0x0000ab86       0x56 /opt/wonderful/toolchain/gcc-arm-none-eabi/lib/gcc/arm-none-eabi/14.2.0/thumb/arm946e-s/libgcc.a(_ashrdi3.o)
 .debug_line    0x0000abdc       0x55 /opt/wonderful/toolchain/gcc-arm-none-eabi/lib/gcc/arm-none-eabi/14.2.0/thumb/arm946e-s/libgcc.a(_ashldi3.o)
 .debug_line    0x0000ac31      0x14b /opt/wonderful/toolchain/gcc-arm-none-eabi/lib/gcc/arm-none-eabi/14.2.0/thumb/arm946e-s/libgcc.a(_arm_addsubdf3.o)
 .debug_line    0x0000ad7c       0x9a /opt/wonderful/toolchain/gcc-arm-none-eabi/lib/gcc/arm-none-eabi/14.2.0/thumb/arm946e-s/libgcc.a(_arm_cmpdf2.o)
 .debug_line    0x0000ae16       0x71 /opt/wonderful/toolchain/gcc-arm-none-eabi/lib/gcc/arm-none-eabi/14.2.0/thumb/arm946e-s/libgcc.a(_arm_truncdfsf2.o)
 .debug_line    0x0000ae87       0x4b /opt/wonderful/toolchain/gcc-arm-none-eabi/lib/gcc/arm-none-eabi/14.2.0/thumb/arm946e-s/libgcc.a(_clzsi2.o)
 .debug_line    0x0000aed2       0x4e /opt/wonderful/toolchain/gcc-arm-none-eabi/lib/gcc/arm-none-eabi/14.2.0/thumb/arm946e-s/libgcc.a(_clzdi2.o)
 .debug_line    0x0000af20       0x6c /opt/wonderful/toolchain/gcc-arm-none-eabi/lib/gcc/arm-none-eabi/14.2.0/thumb/arm946e-s/libgcc.a(_aeabi_ldivmod.o)
 .debug_line    0x0000af8c       0x4e /opt/wonderful/toolchain/gcc-arm-none-eabi/lib/gcc/arm-none-eabi/14.2.0/thumb/arm946e-s/libgcc.a(_aeabi_uldivmod.o)
 .debug_line    0x0000afda      0x114 /opt/wonderful/toolchain/gcc-arm-none-eabi/lib/gcc/arm-none-eabi/14.2.0/thumb/arm946e-s/libgcc.a(_muldi3.o)
 .debug_line    0x0000b0ee      0x1c1 /opt/wonderful/toolchain/gcc-arm-none-eabi/lib/gcc/arm-none-eabi/14.2.0/thumb/arm946e-s/libgcc.a(_udivmoddi4.o)

.debug_frame    0x00000000     0x103c
 *(.debug_frame)
 .debug_frame   0x00000000       0x20 /opt/wonderful/toolchain/gcc-arm-none-eabi/lib/gcc/arm-none-eabi/14.2.0/../../../../arm-none-eabi/lib/thumb/arm946e-s/libc.a(strcmp.S.o)
 .debug_frame   0x00000020       0x2c /opt/wonderful/toolchain/gcc-arm-none-eabi/lib/gcc/arm-none-eabi/14.2.0/../../../../arm-none-eabi/lib/thumb/arm946e-s/libc.a(malloc-calloc.c.o)
 .debug_frame   0x0000004c       0x54 /opt/wonderful/toolchain/gcc-arm-none-eabi/lib/gcc/arm-none-eabi/14.2.0/../../../../arm-none-eabi/lib/thumb/arm946e-s/libc.a(malloc-free.c.o)
 .debug_frame   0x000000a0       0x30 /opt/wonderful/toolchain/gcc-arm-none-eabi/lib/gcc/arm-none-eabi/14.2.0/../../../../arm-none-eabi/lib/thumb/arm946e-s/libc.a(malloc-malloc.c.o)
 .debug_frame   0x000000d0       0x30 /opt/wonderful/toolchain/gcc-arm-none-eabi/lib/gcc/arm-none-eabi/14.2.0/../../../../arm-none-eabi/lib/thumb/arm946e-s/libc.a(malloc-realloc.c.o)
 .debug_frame   0x00000100       0x2c /opt/wonderful/toolchain/gcc-arm-none-eabi/lib/gcc/arm-none-eabi/14.2.0/../../../../arm-none-eabi/lib/thumb/arm946e-s/libc.a(libc_misc_init.c.o)
 .debug_frame   0x0000012c       0x28 /opt/wonderful/toolchain/gcc-arm-none-eabi/lib/gcc/arm-none-eabi/14.2.0/../../../../arm-none-eabi/lib/thumb/arm946e-s/libc.a(libc_stdlib_pico-exit.c.o)
 .debug_frame   0x00000154       0x2c /opt/wonderful/toolchain/gcc-arm-none-eabi/lib/gcc/arm-none-eabi/14.2.0/../../../../arm-none-eabi/lib/thumb/arm946e-s/libc.a(libc_string_memcmp.c.o)
 .debug_frame   0x00000180       0x20 /opt/wonderful/toolchain/gcc-arm-none-eabi/lib/gcc/arm-none-eabi/14.2.0/../../../../arm-none-eabi/lib/thumb/arm946e-s/libc.a(libc_string_strchr.c.o)
 .debug_frame   0x000001a0       0x2c /opt/wonderful/toolchain/gcc-arm-none-eabi/lib/gcc/arm-none-eabi/14.2.0/../../../../arm-none-eabi/lib/thumb/arm946e-s/libc.a(libc_string_strdup.c.o)
 .debug_frame   0x000001cc       0x2c /opt/wonderful/toolchain/gcc-arm-none-eabi/lib/gcc/arm-none-eabi/14.2.0/../../../../arm-none-eabi/lib/thumb/arm946e-s/libc.a(libc_string_strncmp.c.o)
 .debug_frame   0x000001f8       0x2c /opt/wonderful/toolchain/gcc-arm-none-eabi/lib/gcc/arm-none-eabi/14.2.0/../../../../arm-none-eabi/lib/thumb/arm946e-s/libc.a(libc_string_strstr.c.o)
 .debug_frame   0x00000224       0x28 /opt/wonderful/toolchain/gcc-arm-none-eabi/lib/gcc/arm-none-eabi/14.2.0/../../../../arm-none-eabi/lib/thumb/arm946e-s/libc.a(libc_time_lcltime.c.o)
 .debug_frame   0x0000024c       0x30 /opt/wonderful/toolchain/gcc-arm-none-eabi/lib/gcc/arm-none-eabi/14.2.0/../../../../arm-none-eabi/lib/thumb/arm946e-s/libc.a(libc_time_lcltime_r.c.o)
 .debug_frame   0x0000027c       0x30 /opt/wonderful/toolchain/gcc-arm-none-eabi/lib/gcc/arm-none-eabi/14.2.0/../../../../arm-none-eabi/lib/thumb/arm946e-s/libc.a(libc_time_time.c.o)
 .debug_frame   0x000002ac       0x30 /opt/wonderful/toolchain/gcc-arm-none-eabi/lib/gcc/arm-none-eabi/14.2.0/../../../../arm-none-eabi/lib/thumb/arm946e-s/libc.a(libc_time_tzcalc_limits.c.o)
 .debug_frame   0x000002dc       0x48 /opt/wonderful/toolchain/gcc-arm-none-eabi/lib/gcc/arm-none-eabi/14.2.0/../../../../arm-none-eabi/lib/thumb/arm946e-s/libc.a(libc_time_tzset.c.o)
 .debug_frame   0x00000324       0x28 /opt/wonderful/toolchain/gcc-arm-none-eabi/lib/gcc/arm-none-eabi/14.2.0/../../../../arm-none-eabi/lib/thumb/arm946e-s/libc.a(libc_tinystdio_fclose.c.o)
 .debug_frame   0x0000034c       0x28 /opt/wonderful/toolchain/gcc-arm-none-eabi/lib/gcc/arm-none-eabi/14.2.0/../../../../arm-none-eabi/lib/thumb/arm946e-s/libc.a(libc_tinystdio_fflush.c.o)
 .debug_frame   0x00000374       0x20 /opt/wonderful/toolchain/gcc-arm-none-eabi/lib/gcc/arm-none-eabi/14.2.0/../../../../arm-none-eabi/lib/thumb/arm946e-s/libc.a(libc_tinystdio_fileno.c.o)
 .debug_frame   0x00000394       0x30 /opt/wonderful/toolchain/gcc-arm-none-eabi/lib/gcc/arm-none-eabi/14.2.0/../../../../arm-none-eabi/lib/thumb/arm946e-s/libc.a(libc_tinystdio_fread.c.o)
 .debug_frame   0x000003c4       0x28 /opt/wonderful/toolchain/gcc-arm-none-eabi/lib/gcc/arm-none-eabi/14.2.0/../../../../arm-none-eabi/lib/thumb/arm946e-s/libc.a(libc_tinystdio_fseek.c.o)
 .debug_frame   0x000003ec       0x2c /opt/wonderful/toolchain/gcc-arm-none-eabi/lib/gcc/arm-none-eabi/14.2.0/../../../../arm-none-eabi/lib/thumb/arm946e-s/libc.a(libc_tinystdio_ftell.c.o)
 .debug_frame   0x00000418       0x30 /opt/wonderful/toolchain/gcc-arm-none-eabi/lib/gcc/arm-none-eabi/14.2.0/../../../../arm-none-eabi/lib/thumb/arm946e-s/libc.a(libc_tinystdio_printf.c.o)
 .debug_frame   0x00000448       0x28 /opt/wonderful/toolchain/gcc-arm-none-eabi/lib/gcc/arm-none-eabi/14.2.0/../../../../arm-none-eabi/lib/thumb/arm946e-s/libc.a(libc_tinystdio_putchar.c.o)
 .debug_frame   0x00000470       0x30 /opt/wonderful/toolchain/gcc-arm-none-eabi/lib/gcc/arm-none-eabi/14.2.0/../../../../arm-none-eabi/lib/thumb/arm946e-s/libc.a(libc_tinystdio_puts.c.o)
 .debug_frame   0x000004a0       0x28 /opt/wonderful/toolchain/gcc-arm-none-eabi/lib/gcc/arm-none-eabi/14.2.0/../../../../arm-none-eabi/lib/thumb/arm946e-s/libc.a(libc_tinystdio_rewind.c.o)
 .debug_frame   0x000004c8       0x2c /opt/wonderful/toolchain/gcc-arm-none-eabi/lib/gcc/arm-none-eabi/14.2.0/../../../../arm-none-eabi/lib/thumb/arm946e-s/libc.a(libc_tinystdio_setvbuf.c.o)
 .debug_frame   0x000004f4       0x34 /opt/wonderful/toolchain/gcc-arm-none-eabi/lib/gcc/arm-none-eabi/14.2.0/../../../../arm-none-eabi/lib/thumb/arm946e-s/libc.a(libc_tinystdio_snprintf.c.o)
 .debug_frame   0x00000528       0x34 /opt/wonderful/toolchain/gcc-arm-none-eabi/lib/gcc/arm-none-eabi/14.2.0/../../../../arm-none-eabi/lib/thumb/arm946e-s/libc.a(libc_tinystdio_sscanf.c.o)
 .debug_frame   0x0000055c       0x30 /opt/wonderful/toolchain/gcc-arm-none-eabi/lib/gcc/arm-none-eabi/14.2.0/../../../../arm-none-eabi/lib/thumb/arm946e-s/libc.a(libc_tinystdio_strtoul.c.o)
 .debug_frame   0x0000058c       0x78 /opt/wonderful/toolchain/gcc-arm-none-eabi/lib/gcc/arm-none-eabi/14.2.0/../../../../arm-none-eabi/lib/thumb/arm946e-s/libc.a(libc_tinystdio_vfprintf.c.o)
 .debug_frame   0x00000604       0x98 /opt/wonderful/toolchain/gcc-arm-none-eabi/lib/gcc/arm-none-eabi/14.2.0/../../../../arm-none-eabi/lib/thumb/arm946e-s/libc.a(libc_tinystdio_vfscanf.c.o)
 .debug_frame   0x0000069c       0x50 /opt/wonderful/toolchain/gcc-arm-none-eabi/lib/gcc/arm-none-eabi/14.2.0/../../../../arm-none-eabi/lib/thumb/arm946e-s/libc.a(libc_tinystdio_atod_ryu.c.o)
 .debug_frame   0x000006ec       0x34 /opt/wonderful/toolchain/gcc-arm-none-eabi/lib/gcc/arm-none-eabi/14.2.0/../../../../arm-none-eabi/lib/thumb/arm946e-s/libc.a(libc_tinystdio_atof_ryu.c.o)
 .debug_frame   0x00000720       0x74 /opt/wonderful/toolchain/gcc-arm-none-eabi/lib/gcc/arm-none-eabi/14.2.0/../../../../arm-none-eabi/lib/thumb/arm946e-s/libc.a(libc_tinystdio_dtoa_ryu.c.o)
 .debug_frame   0x00000794       0x70 /opt/wonderful/toolchain/gcc-arm-none-eabi/lib/gcc/arm-none-eabi/14.2.0/../../../../arm-none-eabi/lib/thumb/arm946e-s/libc.a(libc_tinystdio_ryu_divpow2.c.o)
 .debug_frame   0x00000804       0x30 /opt/wonderful/toolchain/gcc-arm-none-eabi/lib/gcc/arm-none-eabi/14.2.0/../../../../arm-none-eabi/lib/thumb/arm946e-s/libc.a(libc_tinystdio_ryu_log10.c.o)
 .debug_frame   0x00000834       0x30 /opt/wonderful/toolchain/gcc-arm-none-eabi/lib/gcc/arm-none-eabi/14.2.0/../../../../arm-none-eabi/lib/thumb/arm946e-s/libc.a(libc_tinystdio_ryu_log2pow5.c.o)
 .debug_frame   0x00000864       0x20 /opt/wonderful/toolchain/gcc-arm-none-eabi/lib/gcc/arm-none-eabi/14.2.0/../../../../arm-none-eabi/lib/thumb/arm946e-s/libc.a(libc_tinystdio_ryu_pow5bits.c.o)
 .debug_frame   0x00000884       0x6c /opt/wonderful/toolchain/gcc-arm-none-eabi/lib/gcc/arm-none-eabi/14.2.0/../../../../arm-none-eabi/lib/thumb/arm946e-s/libc.a(libc_tinystdio_ryu_table.c.o)
 .debug_frame   0x000008f0       0x50 /opt/wonderful/toolchain/gcc-arm-none-eabi/lib/gcc/arm-none-eabi/14.2.0/../../../../arm-none-eabi/lib/thumb/arm946e-s/libc.a(libc_tinystdio_ryu_umul128.c.o)
 .debug_frame   0x00000940       0x20 /opt/wonderful/toolchain/gcc-arm-none-eabi/lib/gcc/arm-none-eabi/14.2.0/../../../../arm-none-eabi/lib/thumb/arm946e-s/libc.a(libc_tinystdio_exchange.c.o)
 .debug_frame   0x00000960       0x30 /opt/wonderful/toolchain/gcc-arm-none-eabi/lib/gcc/arm-none-eabi/14.2.0/../../../../arm-none-eabi/lib/thumb/arm946e-s/libc.a(libc_tinystdio_fdopen.c.o)
 .debug_frame   0x00000990       0x30 /opt/wonderful/toolchain/gcc-arm-none-eabi/lib/gcc/arm-none-eabi/14.2.0/../../../../arm-none-eabi/lib/thumb/arm946e-s/libc.a(libc_tinystdio_fopen.c.o)
 .debug_frame   0x000009c0       0x28 /opt/wonderful/toolchain/gcc-arm-none-eabi/lib/gcc/arm-none-eabi/14.2.0/../../../../arm-none-eabi/lib/thumb/arm946e-s/libc.a(memmove.c.o)
 .debug_frame   0x000009e8       0x2c /opt/wonderful/toolchain/gcc-arm-none-eabi/lib/gcc/arm-none-eabi/14.2.0/../../../../arm-none-eabi/lib/thumb/arm946e-s/libc.a(libc_misc_fini.c.o)
 .debug_frame   0x00000a14       0x2c /opt/wonderful/toolchain/gcc-arm-none-eabi/lib/gcc/arm-none-eabi/14.2.0/../../../../arm-none-eabi/lib/thumb/arm946e-s/libc.a(libc_stdlib_getenv.c.o)
 .debug_frame   0x00000a40       0x30 /opt/wonderful/toolchain/gcc-arm-none-eabi/lib/gcc/arm-none-eabi/14.2.0/../../../../arm-none-eabi/lib/thumb/arm946e-s/libc.a(libc_stdlib_getenv_r.c.o)
 .debug_frame   0x00000a70       0x20 /opt/wonderful/toolchain/gcc-arm-none-eabi/lib/gcc/arm-none-eabi/14.2.0/../../../../arm-none-eabi/lib/thumb/arm946e-s/libc.a(libc_string_strnlen.c.o)
 .debug_frame   0x00000a90       0x20 /opt/wonderful/toolchain/gcc-arm-none-eabi/lib/gcc/arm-none-eabi/14.2.0/../../../../arm-none-eabi/lib/thumb/arm946e-s/libc.a(libc_time_gettzinfo.c.o)
 .debug_frame   0x00000ab0       0x30 /opt/wonderful/toolchain/gcc-arm-none-eabi/lib/gcc/arm-none-eabi/14.2.0/../../../../arm-none-eabi/lib/thumb/arm946e-s/libc.a(libc_time_gmtime_r.c.o)
 .debug_frame   0x00000ae0       0x20 /opt/wonderful/toolchain/gcc-arm-none-eabi/lib/gcc/arm-none-eabi/14.2.0/../../../../arm-none-eabi/lib/thumb/arm946e-s/libc.a(libc_tinystdio_atomic_load.c.o)
 .debug_frame   0x00000b00      0x118 /opt/wonderful/toolchain/gcc-arm-none-eabi/lib/gcc/arm-none-eabi/14.2.0/../../../../arm-none-eabi/lib/thumb/arm946e-s/libc.a(libc_tinystdio_bufio.c.o)
 .debug_frame   0x00000c18       0x30 /opt/wonderful/toolchain/gcc-arm-none-eabi/lib/gcc/arm-none-eabi/14.2.0/../../../../arm-none-eabi/lib/thumb/arm946e-s/libc.a(libc_tinystdio_dtox_engine.c.o)
 .debug_frame   0x00000c48       0x28 /opt/wonderful/toolchain/gcc-arm-none-eabi/lib/gcc/arm-none-eabi/14.2.0/../../../../arm-none-eabi/lib/thumb/arm946e-s/libc.a(libc_tinystdio_fgetc.c.o)
 .debug_frame   0x00000c70       0x20 /opt/wonderful/toolchain/gcc-arm-none-eabi/lib/gcc/arm-none-eabi/14.2.0/../../../../arm-none-eabi/lib/thumb/arm946e-s/libc.a(libc_tinystdio_filestrget.c.o)
 .debug_frame   0x00000c90       0x20 /opt/wonderful/toolchain/gcc-arm-none-eabi/lib/gcc/arm-none-eabi/14.2.0/../../../../arm-none-eabi/lib/thumb/arm946e-s/libc.a(libc_tinystdio_filestrput.c.o)
 .debug_frame   0x00000cb0       0x2c /opt/wonderful/toolchain/gcc-arm-none-eabi/lib/gcc/arm-none-eabi/14.2.0/../../../../arm-none-eabi/lib/thumb/arm946e-s/libc.a(libc_tinystdio_fputc.c.o)
 .debug_frame   0x00000cdc       0x28 /opt/wonderful/toolchain/gcc-arm-none-eabi/lib/gcc/arm-none-eabi/14.2.0/../../../../arm-none-eabi/lib/thumb/arm946e-s/libc.a(libc_tinystdio_fseeko.c.o)
 .debug_frame   0x00000d04       0x30 /opt/wonderful/toolchain/gcc-arm-none-eabi/lib/gcc/arm-none-eabi/14.2.0/../../../../arm-none-eabi/lib/thumb/arm946e-s/libc.a(libc_tinystdio_sflags.c.o)
 .debug_frame   0x00000d34       0x2c /opt/wonderful/toolchain/gcc-arm-none-eabi/lib/gcc/arm-none-eabi/14.2.0/../../../../arm-none-eabi/lib/thumb/arm946e-s/libc.a(libc_tinystdio_ungetc.c.o)
 .debug_frame   0x00000d60       0x28 /opt/wonderful/toolchain/gcc-arm-none-eabi/lib/gcc/arm-none-eabi/14.2.0/../../../../arm-none-eabi/lib/thumb/arm946e-s/libc.a(libc_tinystdio_compare_exchange.c.o)
 .debug_frame   0x00000d88       0x20 /opt/wonderful/toolchain/gcc-arm-none-eabi/lib/gcc/arm-none-eabi/14.2.0/thumb/arm946e-s/libgcc.a(_udivsi3.o)
 .debug_frame   0x00000da8       0x20 /opt/wonderful/toolchain/gcc-arm-none-eabi/lib/gcc/arm-none-eabi/14.2.0/thumb/arm946e-s/libgcc.a(_divsi3.o)
 .debug_frame   0x00000dc8       0xac /opt/wonderful/toolchain/gcc-arm-none-eabi/lib/gcc/arm-none-eabi/14.2.0/thumb/arm946e-s/libgcc.a(_arm_addsubdf3.o)
 .debug_frame   0x00000e74       0xc4 /opt/wonderful/toolchain/gcc-arm-none-eabi/lib/gcc/arm-none-eabi/14.2.0/thumb/arm946e-s/libgcc.a(_arm_cmpdf2.o)
 .debug_frame   0x00000f38       0x24 /opt/wonderful/toolchain/gcc-arm-none-eabi/lib/gcc/arm-none-eabi/14.2.0/thumb/arm946e-s/libgcc.a(_arm_truncdfsf2.o)
 .debug_frame   0x00000f5c       0x44 /opt/wonderful/toolchain/gcc-arm-none-eabi/lib/gcc/arm-none-eabi/14.2.0/thumb/arm946e-s/libgcc.a(_aeabi_ldivmod.o)
 .debug_frame   0x00000fa0       0x2c /opt/wonderful/toolchain/gcc-arm-none-eabi/lib/gcc/arm-none-eabi/14.2.0/thumb/arm946e-s/libgcc.a(_aeabi_uldivmod.o)
 .debug_frame   0x00000fcc       0x34 /opt/wonderful/toolchain/gcc-arm-none-eabi/lib/gcc/arm-none-eabi/14.2.0/thumb/arm946e-s/libgcc.a(_muldi3.o)
 .debug_frame   0x00001000       0x3c /opt/wonderful/toolchain/gcc-arm-none-eabi/lib/gcc/arm-none-eabi/14.2.0/thumb/arm946e-s/libgcc.a(_udivmoddi4.o)

.debug_str      0x00000000     0x2c2f
 *(.debug_str)
 .debug_str     0x00000000     0x2c2f /opt/wonderful/toolchain/gcc-arm-none-eabi/lib/gcc/arm-none-eabi/14.2.0/../../../../arm-none-eabi/lib/thumb/arm946e-s/libc.a(strcmp.S.o)
                                 0x97 (size before relaxing)
 .debug_str     0x00002c2f       0x9a /opt/wonderful/toolchain/gcc-arm-none-eabi/lib/gcc/arm-none-eabi/14.2.0/../../../../arm-none-eabi/lib/thumb/arm946e-s/libc.a(strlen.S.o)
 .debug_str     0x00002c2f      0x275 /opt/wonderful/toolchain/gcc-arm-none-eabi/lib/gcc/arm-none-eabi/14.2.0/../../../../arm-none-eabi/lib/thumb/arm946e-s/libc.a(malloc-calloc.c.o)
 .debug_str     0x00002c2f      0x3cc /opt/wonderful/toolchain/gcc-arm-none-eabi/lib/gcc/arm-none-eabi/14.2.0/../../../../arm-none-eabi/lib/thumb/arm946e-s/libc.a(malloc-free.c.o)
 .debug_str     0x00002c2f      0x4a9 /opt/wonderful/toolchain/gcc-arm-none-eabi/lib/gcc/arm-none-eabi/14.2.0/../../../../arm-none-eabi/lib/thumb/arm946e-s/libc.a(malloc-malloc.c.o)
 .debug_str     0x00002c2f      0x37e /opt/wonderful/toolchain/gcc-arm-none-eabi/lib/gcc/arm-none-eabi/14.2.0/../../../../arm-none-eabi/lib/thumb/arm946e-s/libc.a(malloc-realloc.c.o)
 .debug_str     0x00002c2f      0x1d3 /opt/wonderful/toolchain/gcc-arm-none-eabi/lib/gcc/arm-none-eabi/14.2.0/../../../../arm-none-eabi/lib/thumb/arm946e-s/libc.a(libc_errno_errno.c.o)
 .debug_str     0x00002c2f      0x243 /opt/wonderful/toolchain/gcc-arm-none-eabi/lib/gcc/arm-none-eabi/14.2.0/../../../../arm-none-eabi/lib/thumb/arm946e-s/libc.a(libc_misc_init.c.o)
 .debug_str     0x00002c2f      0x20a /opt/wonderful/toolchain/gcc-arm-none-eabi/lib/gcc/arm-none-eabi/14.2.0/../../../../arm-none-eabi/lib/thumb/arm946e-s/libc.a(libc_stdlib_pico-exit.c.o)
 .debug_str     0x00002c2f      0x1dd /opt/wonderful/toolchain/gcc-arm-none-eabi/lib/gcc/arm-none-eabi/14.2.0/../../../../arm-none-eabi/lib/thumb/arm946e-s/libc.a(libc_string_memcmp.c.o)
 .debug_str     0x00002c2f      0x1db /opt/wonderful/toolchain/gcc-arm-none-eabi/lib/gcc/arm-none-eabi/14.2.0/../../../../arm-none-eabi/lib/thumb/arm946e-s/libc.a(libc_string_strchr.c.o)
 .debug_str     0x00002c2f      0x20d /opt/wonderful/toolchain/gcc-arm-none-eabi/lib/gcc/arm-none-eabi/14.2.0/../../../../arm-none-eabi/lib/thumb/arm946e-s/libc.a(libc_string_strdup.c.o)
 .debug_str     0x00002c2f      0x1e4 /opt/wonderful/toolchain/gcc-arm-none-eabi/lib/gcc/arm-none-eabi/14.2.0/../../../../arm-none-eabi/lib/thumb/arm946e-s/libc.a(libc_string_strncmp.c.o)
 .debug_str     0x00002c2f      0x1e2 /opt/wonderful/toolchain/gcc-arm-none-eabi/lib/gcc/arm-none-eabi/14.2.0/../../../../arm-none-eabi/lib/thumb/arm946e-s/libc.a(libc_string_strstr.c.o)
 .debug_str     0x00002c2f      0x264 /opt/wonderful/toolchain/gcc-arm-none-eabi/lib/gcc/arm-none-eabi/14.2.0/../../../../arm-none-eabi/lib/thumb/arm946e-s/libc.a(libc_time_lcltime.c.o)
 .debug_str     0x00002c2f      0x3be /opt/wonderful/toolchain/gcc-arm-none-eabi/lib/gcc/arm-none-eabi/14.2.0/../../../../arm-none-eabi/lib/thumb/arm946e-s/libc.a(libc_time_lcltime_r.c.o)
 .debug_str     0x00002c2f      0x227 /opt/wonderful/toolchain/gcc-arm-none-eabi/lib/gcc/arm-none-eabi/14.2.0/../../../../arm-none-eabi/lib/thumb/arm946e-s/libc.a(libc_time_lcltime_buf.c.o)
 .debug_str     0x00002c2f      0x1fb /opt/wonderful/toolchain/gcc-arm-none-eabi/lib/gcc/arm-none-eabi/14.2.0/../../../../arm-none-eabi/lib/thumb/arm946e-s/libc.a(libc_time_month_lengths.c.o)
 .debug_str     0x00002c2f      0x22e /opt/wonderful/toolchain/gcc-arm-none-eabi/lib/gcc/arm-none-eabi/14.2.0/../../../../arm-none-eabi/lib/thumb/arm946e-s/libc.a(libc_time_time.c.o)
 .debug_str     0x00002c2f      0x305 /opt/wonderful/toolchain/gcc-arm-none-eabi/lib/gcc/arm-none-eabi/14.2.0/../../../../arm-none-eabi/lib/thumb/arm946e-s/libc.a(libc_time_tzcalc_limits.c.o)
 .debug_str     0x00002c2f      0x366 /opt/wonderful/toolchain/gcc-arm-none-eabi/lib/gcc/arm-none-eabi/14.2.0/../../../../arm-none-eabi/lib/thumb/arm946e-s/libc.a(libc_time_tzset.c.o)
 .debug_str     0x00002c2f      0x1ed /opt/wonderful/toolchain/gcc-arm-none-eabi/lib/gcc/arm-none-eabi/14.2.0/../../../../arm-none-eabi/lib/thumb/arm946e-s/libc.a(libc_time_tzvars.c.o)
 .debug_str     0x00002c2f      0x25a /opt/wonderful/toolchain/gcc-arm-none-eabi/lib/gcc/arm-none-eabi/14.2.0/../../../../arm-none-eabi/lib/thumb/arm946e-s/libc.a(libc_tinystdio_fclose.c.o)
 .debug_str     0x00002c2f      0x249 /opt/wonderful/toolchain/gcc-arm-none-eabi/lib/gcc/arm-none-eabi/14.2.0/../../../../arm-none-eabi/lib/thumb/arm946e-s/libc.a(libc_tinystdio_fflush.c.o)
 .debug_str     0x00002c2f      0x33c /opt/wonderful/toolchain/gcc-arm-none-eabi/lib/gcc/arm-none-eabi/14.2.0/../../../../arm-none-eabi/lib/thumb/arm946e-s/libc.a(libc_tinystdio_fileno.c.o)
 .debug_str     0x00002c2f      0x431 /opt/wonderful/toolchain/gcc-arm-none-eabi/lib/gcc/arm-none-eabi/14.2.0/../../../../arm-none-eabi/lib/thumb/arm946e-s/libc.a(libc_tinystdio_fread.c.o)
 .debug_str     0x00002c2f      0x2c0 /opt/wonderful/toolchain/gcc-arm-none-eabi/lib/gcc/arm-none-eabi/14.2.0/../../../../arm-none-eabi/lib/thumb/arm946e-s/libc.a(libc_tinystdio_fseek.c.o)
 .debug_str     0x00002c2f      0x2ae /opt/wonderful/toolchain/gcc-arm-none-eabi/lib/gcc/arm-none-eabi/14.2.0/../../../../arm-none-eabi/lib/thumb/arm946e-s/libc.a(libc_tinystdio_ftell.c.o)
 .debug_str     0x00002c2f      0x278 /opt/wonderful/toolchain/gcc-arm-none-eabi/lib/gcc/arm-none-eabi/14.2.0/../../../../arm-none-eabi/lib/thumb/arm946e-s/libc.a(libc_tinystdio_printf.c.o)
 .debug_str     0x00002c2f      0x251 /opt/wonderful/toolchain/gcc-arm-none-eabi/lib/gcc/arm-none-eabi/14.2.0/../../../../arm-none-eabi/lib/thumb/arm946e-s/libc.a(libc_tinystdio_putchar.c.o)
 .debug_str     0x00002c2f      0x24a /opt/wonderful/toolchain/gcc-arm-none-eabi/lib/gcc/arm-none-eabi/14.2.0/../../../../arm-none-eabi/lib/thumb/arm946e-s/libc.a(libc_tinystdio_puts.c.o)
 .debug_str     0x00002c2f      0x24f /opt/wonderful/toolchain/gcc-arm-none-eabi/lib/gcc/arm-none-eabi/14.2.0/../../../../arm-none-eabi/lib/thumb/arm946e-s/libc.a(libc_tinystdio_rewind.c.o)
 .debug_str     0x00002c2f      0x299 /opt/wonderful/toolchain/gcc-arm-none-eabi/lib/gcc/arm-none-eabi/14.2.0/../../../../arm-none-eabi/lib/thumb/arm946e-s/libc.a(libc_tinystdio_setvbuf.c.o)
 .debug_str     0x00002c2f      0x2be /opt/wonderful/toolchain/gcc-arm-none-eabi/lib/gcc/arm-none-eabi/14.2.0/../../../../arm-none-eabi/lib/thumb/arm946e-s/libc.a(libc_tinystdio_snprintf.c.o)
 .debug_str     0x00002c2f      0x2b9 /opt/wonderful/toolchain/gcc-arm-none-eabi/lib/gcc/arm-none-eabi/14.2.0/../../../../arm-none-eabi/lib/thumb/arm946e-s/libc.a(libc_tinystdio_sscanf.c.o)
 .debug_str     0x00002c2f      0x237 /opt/wonderful/toolchain/gcc-arm-none-eabi/lib/gcc/arm-none-eabi/14.2.0/../../../../arm-none-eabi/lib/thumb/arm946e-s/libc.a(libc_tinystdio_strtoul.c.o)
 .debug_str     0x00002c2f      0x3fb /opt/wonderful/toolchain/gcc-arm-none-eabi/lib/gcc/arm-none-eabi/14.2.0/../../../../arm-none-eabi/lib/thumb/arm946e-s/libc.a(libc_tinystdio_vfprintf.c.o)
 .debug_str     0x00002c2f      0x50a /opt/wonderful/toolchain/gcc-arm-none-eabi/lib/gcc/arm-none-eabi/14.2.0/../../../../arm-none-eabi/lib/thumb/arm946e-s/libc.a(libc_tinystdio_vfscanf.c.o)
 .debug_str     0x00002c2f      0x386 /opt/wonderful/toolchain/gcc-arm-none-eabi/lib/gcc/arm-none-eabi/14.2.0/../../../../arm-none-eabi/lib/thumb/arm946e-s/libc.a(libc_tinystdio_atod_ryu.c.o)
 .debug_str     0x00002c2f      0x340 /opt/wonderful/toolchain/gcc-arm-none-eabi/lib/gcc/arm-none-eabi/14.2.0/../../../../arm-none-eabi/lib/thumb/arm946e-s/libc.a(libc_tinystdio_atof_ryu.c.o)
 .debug_str     0x00002c2f      0x4f5 /opt/wonderful/toolchain/gcc-arm-none-eabi/lib/gcc/arm-none-eabi/14.2.0/../../../../arm-none-eabi/lib/thumb/arm946e-s/libc.a(libc_tinystdio_dtoa_ryu.c.o)
 .debug_str     0x00002c2f      0x2c3 /opt/wonderful/toolchain/gcc-arm-none-eabi/lib/gcc/arm-none-eabi/14.2.0/../../../../arm-none-eabi/lib/thumb/arm946e-s/libc.a(libc_tinystdio_ryu_divpow2.c.o)
 .debug_str     0x00002c2f      0x213 /opt/wonderful/toolchain/gcc-arm-none-eabi/lib/gcc/arm-none-eabi/14.2.0/../../../../arm-none-eabi/lib/thumb/arm946e-s/libc.a(libc_tinystdio_ryu_log10.c.o)
 .debug_str     0x00002c2f      0x219 /opt/wonderful/toolchain/gcc-arm-none-eabi/lib/gcc/arm-none-eabi/14.2.0/../../../../arm-none-eabi/lib/thumb/arm946e-s/libc.a(libc_tinystdio_ryu_log2pow5.c.o)
 .debug_str     0x00002c2f      0x209 /opt/wonderful/toolchain/gcc-arm-none-eabi/lib/gcc/arm-none-eabi/14.2.0/../../../../arm-none-eabi/lib/thumb/arm946e-s/libc.a(libc_tinystdio_ryu_pow5bits.c.o)
 .debug_str     0x00002c2f      0x345 /opt/wonderful/toolchain/gcc-arm-none-eabi/lib/gcc/arm-none-eabi/14.2.0/../../../../arm-none-eabi/lib/thumb/arm946e-s/libc.a(libc_tinystdio_ryu_table.c.o)
 .debug_str     0x00002c2f      0x281 /opt/wonderful/toolchain/gcc-arm-none-eabi/lib/gcc/arm-none-eabi/14.2.0/../../../../arm-none-eabi/lib/thumb/arm946e-s/libc.a(libc_tinystdio_ryu_umul128.c.o)
 .debug_str     0x00002c2f      0x25a /opt/wonderful/toolchain/gcc-arm-none-eabi/lib/gcc/arm-none-eabi/14.2.0/../../../../arm-none-eabi/lib/thumb/arm946e-s/libc.a(libc_tinystdio_exchange.c.o)
 .debug_str     0x00002c2f      0x404 /opt/wonderful/toolchain/gcc-arm-none-eabi/lib/gcc/arm-none-eabi/14.2.0/../../../../arm-none-eabi/lib/thumb/arm946e-s/libc.a(libc_tinystdio_fdopen.c.o)
 .debug_str     0x00002c2f      0x280 /opt/wonderful/toolchain/gcc-arm-none-eabi/lib/gcc/arm-none-eabi/14.2.0/../../../../arm-none-eabi/lib/thumb/arm946e-s/libc.a(libc_tinystdio_fopen.c.o)
 .debug_str     0x00002c2f      0x21b /opt/wonderful/toolchain/gcc-arm-none-eabi/lib/gcc/arm-none-eabi/14.2.0/../../../../arm-none-eabi/lib/thumb/arm946e-s/libc.a(memmove.c.o)
 .debug_str     0x00002c2f      0x219 /opt/wonderful/toolchain/gcc-arm-none-eabi/lib/gcc/arm-none-eabi/14.2.0/../../../../arm-none-eabi/lib/thumb/arm946e-s/libc.a(libc_misc_fini.c.o)
 .debug_str     0x00002c2f      0x1fc /opt/wonderful/toolchain/gcc-arm-none-eabi/lib/gcc/arm-none-eabi/14.2.0/../../../../arm-none-eabi/lib/thumb/arm946e-s/libc.a(libc_stdlib_getenv.c.o)
 .debug_str     0x00002c2f      0x282 /opt/wonderful/toolchain/gcc-arm-none-eabi/lib/gcc/arm-none-eabi/14.2.0/../../../../arm-none-eabi/lib/thumb/arm946e-s/libc.a(libc_stdlib_getenv_r.c.o)
 .debug_str     0x00002c2f      0x1ea /opt/wonderful/toolchain/gcc-arm-none-eabi/lib/gcc/arm-none-eabi/14.2.0/../../../../arm-none-eabi/lib/thumb/arm946e-s/libc.a(libc_string_strnlen.c.o)
 .debug_str     0x00002c2f      0x265 /opt/wonderful/toolchain/gcc-arm-none-eabi/lib/gcc/arm-none-eabi/14.2.0/../../../../arm-none-eabi/lib/thumb/arm946e-s/libc.a(libc_time_gettzinfo.c.o)
 .debug_str     0x00002c2f      0x2c2 /opt/wonderful/toolchain/gcc-arm-none-eabi/lib/gcc/arm-none-eabi/14.2.0/../../../../arm-none-eabi/lib/thumb/arm946e-s/libc.a(libc_time_gmtime_r.c.o)
 .debug_str     0x00002c2f      0x255 /opt/wonderful/toolchain/gcc-arm-none-eabi/lib/gcc/arm-none-eabi/14.2.0/../../../../arm-none-eabi/lib/thumb/arm946e-s/libc.a(libc_tinystdio_atomic_load.c.o)
 .debug_str     0x00002c2f      0x4c2 /opt/wonderful/toolchain/gcc-arm-none-eabi/lib/gcc/arm-none-eabi/14.2.0/../../../../arm-none-eabi/lib/thumb/arm946e-s/libc.a(libc_tinystdio_bufio.c.o)
 .debug_str     0x00002c2f      0x2b3 /opt/wonderful/toolchain/gcc-arm-none-eabi/lib/gcc/arm-none-eabi/14.2.0/../../../../arm-none-eabi/lib/thumb/arm946e-s/libc.a(libc_tinystdio_dtox_engine.c.o)
 .debug_str     0x00002c2f      0x260 /opt/wonderful/toolchain/gcc-arm-none-eabi/lib/gcc/arm-none-eabi/14.2.0/../../../../arm-none-eabi/lib/thumb/arm946e-s/libc.a(libc_tinystdio_fgetc.c.o)
 .debug_str     0x00002c2f      0x27f /opt/wonderful/toolchain/gcc-arm-none-eabi/lib/gcc/arm-none-eabi/14.2.0/../../../../arm-none-eabi/lib/thumb/arm946e-s/libc.a(libc_tinystdio_filestrget.c.o)
 .debug_str     0x00002c2f      0x27f /opt/wonderful/toolchain/gcc-arm-none-eabi/lib/gcc/arm-none-eabi/14.2.0/../../../../arm-none-eabi/lib/thumb/arm946e-s/libc.a(libc_tinystdio_filestrput.c.o)
 .debug_str     0x00002c2f      0x247 /opt/wonderful/toolchain/gcc-arm-none-eabi/lib/gcc/arm-none-eabi/14.2.0/../../../../arm-none-eabi/lib/thumb/arm946e-s/libc.a(libc_tinystdio_fputc.c.o)
 .debug_str     0x00002c2f      0x2c2 /opt/wonderful/toolchain/gcc-arm-none-eabi/lib/gcc/arm-none-eabi/14.2.0/../../../../arm-none-eabi/lib/thumb/arm946e-s/libc.a(libc_tinystdio_fseeko.c.o)
 .debug_str     0x00002c2f      0x215 /opt/wonderful/toolchain/gcc-arm-none-eabi/lib/gcc/arm-none-eabi/14.2.0/../../../../arm-none-eabi/lib/thumb/arm946e-s/libc.a(libc_tinystdio_sflags.c.o)
 .debug_str     0x00002c2f      0x26a /opt/wonderful/toolchain/gcc-arm-none-eabi/lib/gcc/arm-none-eabi/14.2.0/../../../../arm-none-eabi/lib/thumb/arm946e-s/libc.a(libc_tinystdio_ungetc.c.o)
 .debug_str     0x00002c2f      0x269 /opt/wonderful/toolchain/gcc-arm-none-eabi/lib/gcc/arm-none-eabi/14.2.0/../../../../arm-none-eabi/lib/thumb/arm946e-s/libc.a(libc_tinystdio_compare_exchange.c.o)
 .debug_str     0x00002c2f      0x172 /opt/wonderful/toolchain/gcc-arm-none-eabi/lib/gcc/arm-none-eabi/14.2.0/../../../../arm-none-eabi/lib/thumb/arm946e-s/libc.a(libc_stdlib_environ.c.o)
 .debug_str     0x00002c2f       0xba /opt/wonderful/toolchain/gcc-arm-none-eabi/lib/gcc/arm-none-eabi/14.2.0/thumb/arm946e-s/libgcc.a(_thumb1_case_uqi.o)
 .debug_str     0x00002c2f       0xba /opt/wonderful/toolchain/gcc-arm-none-eabi/lib/gcc/arm-none-eabi/14.2.0/thumb/arm946e-s/libgcc.a(_thumb1_case_uhi.o)
 .debug_str     0x00002c2f       0xbf /opt/wonderful/toolchain/gcc-arm-none-eabi/lib/gcc/arm-none-eabi/14.2.0/thumb/arm946e-s/libgcc.a(_udivsi3.o)
 .debug_str     0x00002c2f       0xbd /opt/wonderful/toolchain/gcc-arm-none-eabi/lib/gcc/arm-none-eabi/14.2.0/thumb/arm946e-s/libgcc.a(_divsi3.o)
 .debug_str     0x00002c2f       0xc0 /opt/wonderful/toolchain/gcc-arm-none-eabi/lib/gcc/arm-none-eabi/14.2.0/thumb/arm946e-s/libgcc.a(_dvmd_tls.o)
 .debug_str     0x00002c2f       0xbb /opt/wonderful/toolchain/gcc-arm-none-eabi/lib/gcc/arm-none-eabi/14.2.0/thumb/arm946e-s/libgcc.a(_lshrdi3.o)
 .debug_str     0x00002c2f       0xbb /opt/wonderful/toolchain/gcc-arm-none-eabi/lib/gcc/arm-none-eabi/14.2.0/thumb/arm946e-s/libgcc.a(_ashrdi3.o)
 .debug_str     0x00002c2f       0xbb /opt/wonderful/toolchain/gcc-arm-none-eabi/lib/gcc/arm-none-eabi/14.2.0/thumb/arm946e-s/libgcc.a(_ashldi3.o)
 .debug_str     0x00002c2f      0x151 /opt/wonderful/toolchain/gcc-arm-none-eabi/lib/gcc/arm-none-eabi/14.2.0/thumb/arm946e-s/libgcc.a(_arm_addsubdf3.o)
 .debug_str     0x00002c2f      0x15a /opt/wonderful/toolchain/gcc-arm-none-eabi/lib/gcc/arm-none-eabi/14.2.0/thumb/arm946e-s/libgcc.a(_arm_cmpdf2.o)
 .debug_str     0x00002c2f       0xbe /opt/wonderful/toolchain/gcc-arm-none-eabi/lib/gcc/arm-none-eabi/14.2.0/thumb/arm946e-s/libgcc.a(_arm_truncdfsf2.o)
 .debug_str     0x00002c2f       0xad /opt/wonderful/toolchain/gcc-arm-none-eabi/lib/gcc/arm-none-eabi/14.2.0/thumb/arm946e-s/libgcc.a(_clzsi2.o)
 .debug_str     0x00002c2f       0xad /opt/wonderful/toolchain/gcc-arm-none-eabi/lib/gcc/arm-none-eabi/14.2.0/thumb/arm946e-s/libgcc.a(_clzdi2.o)
 .debug_str     0x00002c2f       0xa0 /opt/wonderful/toolchain/gcc-arm-none-eabi/lib/gcc/arm-none-eabi/14.2.0/thumb/arm946e-s/libgcc.a(_aeabi_ldivmod.o)
 .debug_str     0x00002c2f       0xa0 /opt/wonderful/toolchain/gcc-arm-none-eabi/lib/gcc/arm-none-eabi/14.2.0/thumb/arm946e-s/libgcc.a(_aeabi_uldivmod.o)
 .debug_str     0x00002c2f      0x665 /opt/wonderful/toolchain/gcc-arm-none-eabi/lib/gcc/arm-none-eabi/14.2.0/thumb/arm946e-s/libgcc.a(_muldi3.o)
 .debug_str     0x00002c2f      0x63b /opt/wonderful/toolchain/gcc-arm-none-eabi/lib/gcc/arm-none-eabi/14.2.0/thumb/arm946e-s/libgcc.a(_udivmoddi4.o)

.debug_loc
 *(.debug_loc)

.debug_macinfo
 *(.debug_macinfo)

.debug_weaknames
 *(.debug_weaknames)

.debug_funcnames
 *(.debug_funcnames)

.debug_typenames
 *(.debug_typenames)

.debug_varnames
 *(.debug_varnames)

.debug_pubtypes
 *(.debug_pubtypes)

.debug_ranges
 *(.debug_ranges)

.debug_addr
 *(.debug_addr)

.debug_line_str
                0x00000000      0x144
 *(.debug_line_str)
 .debug_line_str
                0x00000000      0x144 /opt/wonderful/toolchain/gcc-arm-none-eabi/lib/gcc/arm-none-eabi/14.2.0/../../../../arm-none-eabi/lib/thumb/arm946e-s/libc.a(strcmp.S.o)
                                 0x84 (size before relaxing)
 .debug_line_str
                0x00000144       0x87 /opt/wonderful/toolchain/gcc-arm-none-eabi/lib/gcc/arm-none-eabi/14.2.0/../../../../arm-none-eabi/lib/thumb/arm946e-s/libc.a(strlen.S.o)
 .debug_line_str
                0x00000144       0x98 /opt/wonderful/toolchain/gcc-arm-none-eabi/lib/gcc/arm-none-eabi/14.2.0/thumb/arm946e-s/libgcc.a(_thumb1_case_uqi.o)
 .debug_line_str
                0x00000144       0x98 /opt/wonderful/toolchain/gcc-arm-none-eabi/lib/gcc/arm-none-eabi/14.2.0/thumb/arm946e-s/libgcc.a(_thumb1_case_uhi.o)
 .debug_line_str
                0x00000144       0x98 /opt/wonderful/toolchain/gcc-arm-none-eabi/lib/gcc/arm-none-eabi/14.2.0/thumb/arm946e-s/libgcc.a(_udivsi3.o)
 .debug_line_str
                0x00000144       0x98 /opt/wonderful/toolchain/gcc-arm-none-eabi/lib/gcc/arm-none-eabi/14.2.0/thumb/arm946e-s/libgcc.a(_divsi3.o)
 .debug_line_str
                0x00000144       0x98 /opt/wonderful/toolchain/gcc-arm-none-eabi/lib/gcc/arm-none-eabi/14.2.0/thumb/arm946e-s/libgcc.a(_dvmd_tls.o)
 .debug_line_str
                0x00000144       0x98 /opt/wonderful/toolchain/gcc-arm-none-eabi/lib/gcc/arm-none-eabi/14.2.0/thumb/arm946e-s/libgcc.a(_lshrdi3.o)
 .debug_line_str
                0x00000144       0x98 /opt/wonderful/toolchain/gcc-arm-none-eabi/lib/gcc/arm-none-eabi/14.2.0/thumb/arm946e-s/libgcc.a(_ashrdi3.o)
 .debug_line_str
                0x00000144       0x98 /opt/wonderful/toolchain/gcc-arm-none-eabi/lib/gcc/arm-none-eabi/14.2.0/thumb/arm946e-s/libgcc.a(_ashldi3.o)
 .debug_line_str
                0x00000144       0x99 /opt/wonderful/toolchain/gcc-arm-none-eabi/lib/gcc/arm-none-eabi/14.2.0/thumb/arm946e-s/libgcc.a(_arm_addsubdf3.o)
 .debug_line_str
                0x00000144       0x99 /opt/wonderful/toolchain/gcc-arm-none-eabi/lib/gcc/arm-none-eabi/14.2.0/thumb/arm946e-s/libgcc.a(_arm_cmpdf2.o)
 .debug_line_str
                0x00000144       0x99 /opt/wonderful/toolchain/gcc-arm-none-eabi/lib/gcc/arm-none-eabi/14.2.0/thumb/arm946e-s/libgcc.a(_arm_truncdfsf2.o)
 .debug_line_str
                0x00000144       0x98 /opt/wonderful/toolchain/gcc-arm-none-eabi/lib/gcc/arm-none-eabi/14.2.0/thumb/arm946e-s/libgcc.a(_clzsi2.o)
 .debug_line_str
                0x00000144       0x98 /opt/wonderful/toolchain/gcc-arm-none-eabi/lib/gcc/arm-none-eabi/14.2.0/thumb/arm946e-s/libgcc.a(_clzdi2.o)
 .debug_line_str
                0x00000144       0x94 /opt/wonderful/toolchain/gcc-arm-none-eabi/lib/gcc/arm-none-eabi/14.2.0/thumb/arm946e-s/libgcc.a(_aeabi_ldivmod.o)
 .debug_line_str
                0x00000144       0x94 /opt/wonderful/toolchain/gcc-arm-none-eabi/lib/gcc/arm-none-eabi/14.2.0/thumb/arm946e-s/libgcc.a(_aeabi_uldivmod.o)

.debug_loclists
                0x00000000     0x848e
 *(.debug_loclists)
 .debug_loclists
                0x00000000      0x1ac /opt/wonderful/toolchain/gcc-arm-none-eabi/lib/gcc/arm-none-eabi/14.2.0/../../../../arm-none-eabi/lib/thumb/arm946e-s/libc.a(malloc-calloc.c.o)
 .debug_loclists
                0x000001ac      0x3a6 /opt/wonderful/toolchain/gcc-arm-none-eabi/lib/gcc/arm-none-eabi/14.2.0/../../../../arm-none-eabi/lib/thumb/arm946e-s/libc.a(malloc-free.c.o)
 .debug_loclists
                0x00000552      0x738 /opt/wonderful/toolchain/gcc-arm-none-eabi/lib/gcc/arm-none-eabi/14.2.0/../../../../arm-none-eabi/lib/thumb/arm946e-s/libc.a(malloc-malloc.c.o)
 .debug_loclists
                0x00000c8a      0xbef /opt/wonderful/toolchain/gcc-arm-none-eabi/lib/gcc/arm-none-eabi/14.2.0/../../../../arm-none-eabi/lib/thumb/arm946e-s/libc.a(malloc-realloc.c.o)
 .debug_loclists
                0x00001879       0x5b /opt/wonderful/toolchain/gcc-arm-none-eabi/lib/gcc/arm-none-eabi/14.2.0/../../../../arm-none-eabi/lib/thumb/arm946e-s/libc.a(libc_misc_init.c.o)
 .debug_loclists
                0x000018d4       0x20 /opt/wonderful/toolchain/gcc-arm-none-eabi/lib/gcc/arm-none-eabi/14.2.0/../../../../arm-none-eabi/lib/thumb/arm946e-s/libc.a(libc_stdlib_pico-exit.c.o)
 .debug_loclists
                0x000018f4       0xf5 /opt/wonderful/toolchain/gcc-arm-none-eabi/lib/gcc/arm-none-eabi/14.2.0/../../../../arm-none-eabi/lib/thumb/arm946e-s/libc.a(libc_string_memcmp.c.o)
 .debug_loclists
                0x000019e9       0xa6 /opt/wonderful/toolchain/gcc-arm-none-eabi/lib/gcc/arm-none-eabi/14.2.0/../../../../arm-none-eabi/lib/thumb/arm946e-s/libc.a(libc_string_strchr.c.o)
 .debug_loclists
                0x00001a8f       0x56 /opt/wonderful/toolchain/gcc-arm-none-eabi/lib/gcc/arm-none-eabi/14.2.0/../../../../arm-none-eabi/lib/thumb/arm946e-s/libc.a(libc_string_strdup.c.o)
 .debug_loclists
                0x00001ae5       0x96 /opt/wonderful/toolchain/gcc-arm-none-eabi/lib/gcc/arm-none-eabi/14.2.0/../../../../arm-none-eabi/lib/thumb/arm946e-s/libc.a(libc_string_strncmp.c.o)
 .debug_loclists
                0x00001b7b       0x46 /opt/wonderful/toolchain/gcc-arm-none-eabi/lib/gcc/arm-none-eabi/14.2.0/../../../../arm-none-eabi/lib/thumb/arm946e-s/libc.a(libc_string_strstr.c.o)
 .debug_loclists
                0x00001bc1       0x30 /opt/wonderful/toolchain/gcc-arm-none-eabi/lib/gcc/arm-none-eabi/14.2.0/../../../../arm-none-eabi/lib/thumb/arm946e-s/libc.a(libc_time_lcltime.c.o)
 .debug_loclists
                0x00001bf1      0x182 /opt/wonderful/toolchain/gcc-arm-none-eabi/lib/gcc/arm-none-eabi/14.2.0/../../../../arm-none-eabi/lib/thumb/arm946e-s/libc.a(libc_time_lcltime_r.c.o)
 .debug_loclists
                0x00001d73       0x30 /opt/wonderful/toolchain/gcc-arm-none-eabi/lib/gcc/arm-none-eabi/14.2.0/../../../../arm-none-eabi/lib/thumb/arm946e-s/libc.a(libc_time_time.c.o)
 .debug_loclists
                0x00001da3      0x19b /opt/wonderful/toolchain/gcc-arm-none-eabi/lib/gcc/arm-none-eabi/14.2.0/../../../../arm-none-eabi/lib/thumb/arm946e-s/libc.a(libc_time_tzcalc_limits.c.o)
 .debug_loclists
                0x00001f3e      0x291 /opt/wonderful/toolchain/gcc-arm-none-eabi/lib/gcc/arm-none-eabi/14.2.0/../../../../arm-none-eabi/lib/thumb/arm946e-s/libc.a(libc_time_tzset.c.o)
 .debug_loclists
                0x000021cf       0x54 /opt/wonderful/toolchain/gcc-arm-none-eabi/lib/gcc/arm-none-eabi/14.2.0/../../../../arm-none-eabi/lib/thumb/arm946e-s/libc.a(libc_tinystdio_fclose.c.o)
 .debug_loclists
                0x00002223       0x29 /opt/wonderful/toolchain/gcc-arm-none-eabi/lib/gcc/arm-none-eabi/14.2.0/../../../../arm-none-eabi/lib/thumb/arm946e-s/libc.a(libc_tinystdio_fflush.c.o)
 .debug_loclists
                0x0000224c       0x4b /opt/wonderful/toolchain/gcc-arm-none-eabi/lib/gcc/arm-none-eabi/14.2.0/../../../../arm-none-eabi/lib/thumb/arm946e-s/libc.a(libc_tinystdio_fileno.c.o)
 .debug_loclists
                0x00002297      0x356 /opt/wonderful/toolchain/gcc-arm-none-eabi/lib/gcc/arm-none-eabi/14.2.0/../../../../arm-none-eabi/lib/thumb/arm946e-s/libc.a(libc_tinystdio_fread.c.o)
 .debug_loclists
                0x000025ed       0xd8 /opt/wonderful/toolchain/gcc-arm-none-eabi/lib/gcc/arm-none-eabi/14.2.0/../../../../arm-none-eabi/lib/thumb/arm946e-s/libc.a(libc_tinystdio_fseek.c.o)
 .debug_loclists
                0x000026c5       0x84 /opt/wonderful/toolchain/gcc-arm-none-eabi/lib/gcc/arm-none-eabi/14.2.0/../../../../arm-none-eabi/lib/thumb/arm946e-s/libc.a(libc_tinystdio_ftell.c.o)
 .debug_loclists
                0x00002749       0x17 /opt/wonderful/toolchain/gcc-arm-none-eabi/lib/gcc/arm-none-eabi/14.2.0/../../../../arm-none-eabi/lib/thumb/arm946e-s/libc.a(libc_tinystdio_printf.c.o)
 .debug_loclists
                0x00002760       0x29 /opt/wonderful/toolchain/gcc-arm-none-eabi/lib/gcc/arm-none-eabi/14.2.0/../../../../arm-none-eabi/lib/thumb/arm946e-s/libc.a(libc_tinystdio_putchar.c.o)
 .debug_loclists
                0x00002789       0x6f /opt/wonderful/toolchain/gcc-arm-none-eabi/lib/gcc/arm-none-eabi/14.2.0/../../../../arm-none-eabi/lib/thumb/arm946e-s/libc.a(libc_tinystdio_puts.c.o)
 .debug_loclists
                0x000027f8       0x30 /opt/wonderful/toolchain/gcc-arm-none-eabi/lib/gcc/arm-none-eabi/14.2.0/../../../../arm-none-eabi/lib/thumb/arm946e-s/libc.a(libc_tinystdio_rewind.c.o)
 .debug_loclists
                0x00002828       0xab /opt/wonderful/toolchain/gcc-arm-none-eabi/lib/gcc/arm-none-eabi/14.2.0/../../../../arm-none-eabi/lib/thumb/arm946e-s/libc.a(libc_tinystdio_setvbuf.c.o)
 .debug_loclists
                0x000028d3       0xb1 /opt/wonderful/toolchain/gcc-arm-none-eabi/lib/gcc/arm-none-eabi/14.2.0/../../../../arm-none-eabi/lib/thumb/arm946e-s/libc.a(libc_tinystdio_snprintf.c.o)
 .debug_loclists
                0x00002984       0x3b /opt/wonderful/toolchain/gcc-arm-none-eabi/lib/gcc/arm-none-eabi/14.2.0/../../../../arm-none-eabi/lib/thumb/arm946e-s/libc.a(libc_tinystdio_sscanf.c.o)
 .debug_loclists
                0x000029bf      0x283 /opt/wonderful/toolchain/gcc-arm-none-eabi/lib/gcc/arm-none-eabi/14.2.0/../../../../arm-none-eabi/lib/thumb/arm946e-s/libc.a(libc_tinystdio_strtoul.c.o)
 .debug_loclists
                0x00002c42     0x1102 /opt/wonderful/toolchain/gcc-arm-none-eabi/lib/gcc/arm-none-eabi/14.2.0/../../../../arm-none-eabi/lib/thumb/arm946e-s/libc.a(libc_tinystdio_vfprintf.c.o)
 .debug_loclists
                0x00003d44     0x155c /opt/wonderful/toolchain/gcc-arm-none-eabi/lib/gcc/arm-none-eabi/14.2.0/../../../../arm-none-eabi/lib/thumb/arm946e-s/libc.a(libc_tinystdio_vfscanf.c.o)
 .debug_loclists
                0x000052a0      0x324 /opt/wonderful/toolchain/gcc-arm-none-eabi/lib/gcc/arm-none-eabi/14.2.0/../../../../arm-none-eabi/lib/thumb/arm946e-s/libc.a(libc_tinystdio_atod_ryu.c.o)
 .debug_loclists
                0x000055c4      0x35f /opt/wonderful/toolchain/gcc-arm-none-eabi/lib/gcc/arm-none-eabi/14.2.0/../../../../arm-none-eabi/lib/thumb/arm946e-s/libc.a(libc_tinystdio_atof_ryu.c.o)
 .debug_loclists
                0x00005923      0xc68 /opt/wonderful/toolchain/gcc-arm-none-eabi/lib/gcc/arm-none-eabi/14.2.0/../../../../arm-none-eabi/lib/thumb/arm946e-s/libc.a(libc_tinystdio_dtoa_ryu.c.o)
 .debug_loclists
                0x0000658b      0x1c2 /opt/wonderful/toolchain/gcc-arm-none-eabi/lib/gcc/arm-none-eabi/14.2.0/../../../../arm-none-eabi/lib/thumb/arm946e-s/libc.a(libc_tinystdio_ryu_divpow2.c.o)
 .debug_loclists
                0x0000674d       0x46 /opt/wonderful/toolchain/gcc-arm-none-eabi/lib/gcc/arm-none-eabi/14.2.0/../../../../arm-none-eabi/lib/thumb/arm946e-s/libc.a(libc_tinystdio_ryu_log10.c.o)
 .debug_loclists
                0x00006793       0x51 /opt/wonderful/toolchain/gcc-arm-none-eabi/lib/gcc/arm-none-eabi/14.2.0/../../../../arm-none-eabi/lib/thumb/arm946e-s/libc.a(libc_tinystdio_ryu_log2pow5.c.o)
 .debug_loclists
                0x000067e4       0x29 /opt/wonderful/toolchain/gcc-arm-none-eabi/lib/gcc/arm-none-eabi/14.2.0/../../../../arm-none-eabi/lib/thumb/arm946e-s/libc.a(libc_tinystdio_ryu_pow5bits.c.o)
 .debug_loclists
                0x0000680d      0x2c8 /opt/wonderful/toolchain/gcc-arm-none-eabi/lib/gcc/arm-none-eabi/14.2.0/../../../../arm-none-eabi/lib/thumb/arm946e-s/libc.a(libc_tinystdio_ryu_table.c.o)
 .debug_loclists
                0x00006ad5      0x1a1 /opt/wonderful/toolchain/gcc-arm-none-eabi/lib/gcc/arm-none-eabi/14.2.0/../../../../arm-none-eabi/lib/thumb/arm946e-s/libc.a(libc_tinystdio_ryu_umul128.c.o)
 .debug_loclists
                0x00006c76       0x55 /opt/wonderful/toolchain/gcc-arm-none-eabi/lib/gcc/arm-none-eabi/14.2.0/../../../../arm-none-eabi/lib/thumb/arm946e-s/libc.a(libc_tinystdio_exchange.c.o)
 .debug_loclists
                0x00006ccb       0xcb /opt/wonderful/toolchain/gcc-arm-none-eabi/lib/gcc/arm-none-eabi/14.2.0/../../../../arm-none-eabi/lib/thumb/arm946e-s/libc.a(libc_tinystdio_fdopen.c.o)
 .debug_loclists
                0x00006d96       0x81 /opt/wonderful/toolchain/gcc-arm-none-eabi/lib/gcc/arm-none-eabi/14.2.0/../../../../arm-none-eabi/lib/thumb/arm946e-s/libc.a(libc_tinystdio_fopen.c.o)
 .debug_loclists
                0x00006e17       0xc7 /opt/wonderful/toolchain/gcc-arm-none-eabi/lib/gcc/arm-none-eabi/14.2.0/../../../../arm-none-eabi/lib/thumb/arm946e-s/libc.a(memmove.c.o)
 .debug_loclists
                0x00006ede       0x34 /opt/wonderful/toolchain/gcc-arm-none-eabi/lib/gcc/arm-none-eabi/14.2.0/../../../../arm-none-eabi/lib/thumb/arm946e-s/libc.a(libc_misc_fini.c.o)
 .debug_loclists
                0x00006f12       0x29 /opt/wonderful/toolchain/gcc-arm-none-eabi/lib/gcc/arm-none-eabi/14.2.0/../../../../arm-none-eabi/lib/thumb/arm946e-s/libc.a(libc_stdlib_getenv.c.o)
 .debug_loclists
                0x00006f3b       0x98 /opt/wonderful/toolchain/gcc-arm-none-eabi/lib/gcc/arm-none-eabi/14.2.0/../../../../arm-none-eabi/lib/thumb/arm946e-s/libc.a(libc_stdlib_getenv_r.c.o)
 .debug_loclists
                0x00006fd3       0xd2 /opt/wonderful/toolchain/gcc-arm-none-eabi/lib/gcc/arm-none-eabi/14.2.0/../../../../arm-none-eabi/lib/thumb/arm946e-s/libc.a(libc_string_strnlen.c.o)
 .debug_loclists
                0x000070a5      0x20e /opt/wonderful/toolchain/gcc-arm-none-eabi/lib/gcc/arm-none-eabi/14.2.0/../../../../arm-none-eabi/lib/thumb/arm946e-s/libc.a(libc_time_gmtime_r.c.o)
 .debug_loclists
                0x000072b3       0x34 /opt/wonderful/toolchain/gcc-arm-none-eabi/lib/gcc/arm-none-eabi/14.2.0/../../../../arm-none-eabi/lib/thumb/arm946e-s/libc.a(libc_tinystdio_atomic_load.c.o)
 .debug_loclists
                0x000072e7      0x7ab /opt/wonderful/toolchain/gcc-arm-none-eabi/lib/gcc/arm-none-eabi/14.2.0/../../../../arm-none-eabi/lib/thumb/arm946e-s/libc.a(libc_tinystdio_bufio.c.o)
 .debug_loclists
                0x00007a92      0x2b0 /opt/wonderful/toolchain/gcc-arm-none-eabi/lib/gcc/arm-none-eabi/14.2.0/../../../../arm-none-eabi/lib/thumb/arm946e-s/libc.a(libc_tinystdio_dtox_engine.c.o)
 .debug_loclists
                0x00007d42       0x76 /opt/wonderful/toolchain/gcc-arm-none-eabi/lib/gcc/arm-none-eabi/14.2.0/../../../../arm-none-eabi/lib/thumb/arm946e-s/libc.a(libc_tinystdio_fgetc.c.o)
 .debug_loclists
                0x00007db8       0x56 /opt/wonderful/toolchain/gcc-arm-none-eabi/lib/gcc/arm-none-eabi/14.2.0/../../../../arm-none-eabi/lib/thumb/arm946e-s/libc.a(libc_tinystdio_filestrget.c.o)
 .debug_loclists
                0x00007e0e       0x17 /opt/wonderful/toolchain/gcc-arm-none-eabi/lib/gcc/arm-none-eabi/14.2.0/../../../../arm-none-eabi/lib/thumb/arm946e-s/libc.a(libc_tinystdio_filestrput.c.o)
 .debug_loclists
                0x00007e25       0x54 /opt/wonderful/toolchain/gcc-arm-none-eabi/lib/gcc/arm-none-eabi/14.2.0/../../../../arm-none-eabi/lib/thumb/arm946e-s/libc.a(libc_tinystdio_fputc.c.o)
 .debug_loclists
                0x00007e79       0xd8 /opt/wonderful/toolchain/gcc-arm-none-eabi/lib/gcc/arm-none-eabi/14.2.0/../../../../arm-none-eabi/lib/thumb/arm946e-s/libc.a(libc_tinystdio_fseeko.c.o)
 .debug_loclists
                0x00007f51       0x96 /opt/wonderful/toolchain/gcc-arm-none-eabi/lib/gcc/arm-none-eabi/14.2.0/../../../../arm-none-eabi/lib/thumb/arm946e-s/libc.a(libc_tinystdio_sflags.c.o)
 .debug_loclists
                0x00007fe7       0x70 /opt/wonderful/toolchain/gcc-arm-none-eabi/lib/gcc/arm-none-eabi/14.2.0/../../../../arm-none-eabi/lib/thumb/arm946e-s/libc.a(libc_tinystdio_ungetc.c.o)
 .debug_loclists
                0x00008057       0x4a /opt/wonderful/toolchain/gcc-arm-none-eabi/lib/gcc/arm-none-eabi/14.2.0/../../../../arm-none-eabi/lib/thumb/arm946e-s/libc.a(libc_tinystdio_compare_exchange.c.o)
 .debug_loclists
                0x000080a1      0x12e /opt/wonderful/toolchain/gcc-arm-none-eabi/lib/gcc/arm-none-eabi/14.2.0/thumb/arm946e-s/libgcc.a(_muldi3.o)
 .debug_loclists
                0x000081cf      0x2bf /opt/wonderful/toolchain/gcc-arm-none-eabi/lib/gcc/arm-none-eabi/14.2.0/thumb/arm946e-s/libgcc.a(_udivmoddi4.o)

.debug_macro
 *(.debug_macro)

.debug_names
 *(.debug_names)

.debug_rnglists
                0x00000000      0xbc3
 *(.debug_rnglists)
 .debug_rnglists
                0x00000000       0x30 /opt/wonderful/toolchain/gcc-arm-none-eabi/lib/gcc/arm-none-eabi/14.2.0/../../../../arm-none-eabi/lib/thumb/arm946e-s/libc.a(malloc-calloc.c.o)
 .debug_rnglists
                0x00000030       0x1b /opt/wonderful/toolchain/gcc-arm-none-eabi/lib/gcc/arm-none-eabi/14.2.0/../../../../arm-none-eabi/lib/thumb/arm946e-s/libc.a(malloc-free.c.o)
 .debug_rnglists
                0x0000004b       0x27 /opt/wonderful/toolchain/gcc-arm-none-eabi/lib/gcc/arm-none-eabi/14.2.0/../../../../arm-none-eabi/lib/thumb/arm946e-s/libc.a(malloc-malloc.c.o)
 .debug_rnglists
                0x00000072       0x88 /opt/wonderful/toolchain/gcc-arm-none-eabi/lib/gcc/arm-none-eabi/14.2.0/../../../../arm-none-eabi/lib/thumb/arm946e-s/libc.a(malloc-realloc.c.o)
 .debug_rnglists
                0x000000fa       0x13 /opt/wonderful/toolchain/gcc-arm-none-eabi/lib/gcc/arm-none-eabi/14.2.0/../../../../arm-none-eabi/lib/thumb/arm946e-s/libc.a(libc_misc_init.c.o)
 .debug_rnglists
                0x0000010d       0x13 /opt/wonderful/toolchain/gcc-arm-none-eabi/lib/gcc/arm-none-eabi/14.2.0/../../../../arm-none-eabi/lib/thumb/arm946e-s/libc.a(libc_stdlib_pico-exit.c.o)
 .debug_rnglists
                0x00000120       0x13 /opt/wonderful/toolchain/gcc-arm-none-eabi/lib/gcc/arm-none-eabi/14.2.0/../../../../arm-none-eabi/lib/thumb/arm946e-s/libc.a(libc_string_memcmp.c.o)
 .debug_rnglists
                0x00000133       0x13 /opt/wonderful/toolchain/gcc-arm-none-eabi/lib/gcc/arm-none-eabi/14.2.0/../../../../arm-none-eabi/lib/thumb/arm946e-s/libc.a(libc_string_strchr.c.o)
 .debug_rnglists
                0x00000146       0x13 /opt/wonderful/toolchain/gcc-arm-none-eabi/lib/gcc/arm-none-eabi/14.2.0/../../../../arm-none-eabi/lib/thumb/arm946e-s/libc.a(libc_string_strdup.c.o)
 .debug_rnglists
                0x00000159       0x13 /opt/wonderful/toolchain/gcc-arm-none-eabi/lib/gcc/arm-none-eabi/14.2.0/../../../../arm-none-eabi/lib/thumb/arm946e-s/libc.a(libc_string_strncmp.c.o)
 .debug_rnglists
                0x0000016c       0x13 /opt/wonderful/toolchain/gcc-arm-none-eabi/lib/gcc/arm-none-eabi/14.2.0/../../../../arm-none-eabi/lib/thumb/arm946e-s/libc.a(libc_string_strstr.c.o)
 .debug_rnglists
                0x0000017f       0x13 /opt/wonderful/toolchain/gcc-arm-none-eabi/lib/gcc/arm-none-eabi/14.2.0/../../../../arm-none-eabi/lib/thumb/arm946e-s/libc.a(libc_time_lcltime.c.o)
 .debug_rnglists
                0x00000192       0x2c /opt/wonderful/toolchain/gcc-arm-none-eabi/lib/gcc/arm-none-eabi/14.2.0/../../../../arm-none-eabi/lib/thumb/arm946e-s/libc.a(libc_time_lcltime_r.c.o)
 .debug_rnglists
                0x000001be       0x13 /opt/wonderful/toolchain/gcc-arm-none-eabi/lib/gcc/arm-none-eabi/14.2.0/../../../../arm-none-eabi/lib/thumb/arm946e-s/libc.a(libc_time_time.c.o)
 .debug_rnglists
                0x000001d1       0x20 /opt/wonderful/toolchain/gcc-arm-none-eabi/lib/gcc/arm-none-eabi/14.2.0/../../../../arm-none-eabi/lib/thumb/arm946e-s/libc.a(libc_time_tzcalc_limits.c.o)
 .debug_rnglists
                0x000001f1       0x1a /opt/wonderful/toolchain/gcc-arm-none-eabi/lib/gcc/arm-none-eabi/14.2.0/../../../../arm-none-eabi/lib/thumb/arm946e-s/libc.a(libc_time_tzset.c.o)
 .debug_rnglists
                0x0000020b       0x13 /opt/wonderful/toolchain/gcc-arm-none-eabi/lib/gcc/arm-none-eabi/14.2.0/../../../../arm-none-eabi/lib/thumb/arm946e-s/libc.a(libc_tinystdio_fclose.c.o)
 .debug_rnglists
                0x0000021e       0x13 /opt/wonderful/toolchain/gcc-arm-none-eabi/lib/gcc/arm-none-eabi/14.2.0/../../../../arm-none-eabi/lib/thumb/arm946e-s/libc.a(libc_tinystdio_fflush.c.o)
 .debug_rnglists
                0x00000231       0x13 /opt/wonderful/toolchain/gcc-arm-none-eabi/lib/gcc/arm-none-eabi/14.2.0/../../../../arm-none-eabi/lib/thumb/arm946e-s/libc.a(libc_tinystdio_fileno.c.o)
 .debug_rnglists
                0x00000244       0x61 /opt/wonderful/toolchain/gcc-arm-none-eabi/lib/gcc/arm-none-eabi/14.2.0/../../../../arm-none-eabi/lib/thumb/arm946e-s/libc.a(libc_tinystdio_fread.c.o)
 .debug_rnglists
                0x000002a5       0x13 /opt/wonderful/toolchain/gcc-arm-none-eabi/lib/gcc/arm-none-eabi/14.2.0/../../../../arm-none-eabi/lib/thumb/arm946e-s/libc.a(libc_tinystdio_fseek.c.o)
 .debug_rnglists
                0x000002b8       0x13 /opt/wonderful/toolchain/gcc-arm-none-eabi/lib/gcc/arm-none-eabi/14.2.0/../../../../arm-none-eabi/lib/thumb/arm946e-s/libc.a(libc_tinystdio_ftell.c.o)
 .debug_rnglists
                0x000002cb       0x13 /opt/wonderful/toolchain/gcc-arm-none-eabi/lib/gcc/arm-none-eabi/14.2.0/../../../../arm-none-eabi/lib/thumb/arm946e-s/libc.a(libc_tinystdio_printf.c.o)
 .debug_rnglists
                0x000002de       0x13 /opt/wonderful/toolchain/gcc-arm-none-eabi/lib/gcc/arm-none-eabi/14.2.0/../../../../arm-none-eabi/lib/thumb/arm946e-s/libc.a(libc_tinystdio_putchar.c.o)
 .debug_rnglists
                0x000002f1       0x13 /opt/wonderful/toolchain/gcc-arm-none-eabi/lib/gcc/arm-none-eabi/14.2.0/../../../../arm-none-eabi/lib/thumb/arm946e-s/libc.a(libc_tinystdio_puts.c.o)
 .debug_rnglists
                0x00000304       0x13 /opt/wonderful/toolchain/gcc-arm-none-eabi/lib/gcc/arm-none-eabi/14.2.0/../../../../arm-none-eabi/lib/thumb/arm946e-s/libc.a(libc_tinystdio_rewind.c.o)
 .debug_rnglists
                0x00000317       0x13 /opt/wonderful/toolchain/gcc-arm-none-eabi/lib/gcc/arm-none-eabi/14.2.0/../../../../arm-none-eabi/lib/thumb/arm946e-s/libc.a(libc_tinystdio_setvbuf.c.o)
 .debug_rnglists
                0x0000032a       0x13 /opt/wonderful/toolchain/gcc-arm-none-eabi/lib/gcc/arm-none-eabi/14.2.0/../../../../arm-none-eabi/lib/thumb/arm946e-s/libc.a(libc_tinystdio_snprintf.c.o)
 .debug_rnglists
                0x0000033d       0x13 /opt/wonderful/toolchain/gcc-arm-none-eabi/lib/gcc/arm-none-eabi/14.2.0/../../../../arm-none-eabi/lib/thumb/arm946e-s/libc.a(libc_tinystdio_sscanf.c.o)
 .debug_rnglists
                0x00000350       0x20 /opt/wonderful/toolchain/gcc-arm-none-eabi/lib/gcc/arm-none-eabi/14.2.0/../../../../arm-none-eabi/lib/thumb/arm946e-s/libc.a(libc_tinystdio_strtoul.c.o)
 .debug_rnglists
                0x00000370       0xf6 /opt/wonderful/toolchain/gcc-arm-none-eabi/lib/gcc/arm-none-eabi/14.2.0/../../../../arm-none-eabi/lib/thumb/arm946e-s/libc.a(libc_tinystdio_vfprintf.c.o)
 .debug_rnglists
                0x00000466      0x1d4 /opt/wonderful/toolchain/gcc-arm-none-eabi/lib/gcc/arm-none-eabi/14.2.0/../../../../arm-none-eabi/lib/thumb/arm946e-s/libc.a(libc_tinystdio_vfscanf.c.o)
 .debug_rnglists
                0x0000063a       0x6c /opt/wonderful/toolchain/gcc-arm-none-eabi/lib/gcc/arm-none-eabi/14.2.0/../../../../arm-none-eabi/lib/thumb/arm946e-s/libc.a(libc_tinystdio_atod_ryu.c.o)
 .debug_rnglists
                0x000006a6       0x60 /opt/wonderful/toolchain/gcc-arm-none-eabi/lib/gcc/arm-none-eabi/14.2.0/../../../../arm-none-eabi/lib/thumb/arm946e-s/libc.a(libc_tinystdio_atof_ryu.c.o)
 .debug_rnglists
                0x00000706      0x16d /opt/wonderful/toolchain/gcc-arm-none-eabi/lib/gcc/arm-none-eabi/14.2.0/../../../../arm-none-eabi/lib/thumb/arm946e-s/libc.a(libc_tinystdio_dtoa_ryu.c.o)
 .debug_rnglists
                0x00000873       0x1f /opt/wonderful/toolchain/gcc-arm-none-eabi/lib/gcc/arm-none-eabi/14.2.0/../../../../arm-none-eabi/lib/thumb/arm946e-s/libc.a(libc_tinystdio_ryu_divpow2.c.o)
 .debug_rnglists
                0x00000892       0x19 /opt/wonderful/toolchain/gcc-arm-none-eabi/lib/gcc/arm-none-eabi/14.2.0/../../../../arm-none-eabi/lib/thumb/arm946e-s/libc.a(libc_tinystdio_ryu_log10.c.o)
 .debug_rnglists
                0x000008ab       0x25 /opt/wonderful/toolchain/gcc-arm-none-eabi/lib/gcc/arm-none-eabi/14.2.0/../../../../arm-none-eabi/lib/thumb/arm946e-s/libc.a(libc_tinystdio_ryu_log2pow5.c.o)
 .debug_rnglists
                0x000008d0       0x13 /opt/wonderful/toolchain/gcc-arm-none-eabi/lib/gcc/arm-none-eabi/14.2.0/../../../../arm-none-eabi/lib/thumb/arm946e-s/libc.a(libc_tinystdio_ryu_pow5bits.c.o)
 .debug_rnglists
                0x000008e3       0x21 /opt/wonderful/toolchain/gcc-arm-none-eabi/lib/gcc/arm-none-eabi/14.2.0/../../../../arm-none-eabi/lib/thumb/arm946e-s/libc.a(libc_tinystdio_ryu_table.c.o)
 .debug_rnglists
                0x00000904       0x19 /opt/wonderful/toolchain/gcc-arm-none-eabi/lib/gcc/arm-none-eabi/14.2.0/../../../../arm-none-eabi/lib/thumb/arm946e-s/libc.a(libc_tinystdio_ryu_umul128.c.o)
 .debug_rnglists
                0x0000091d       0x1f /opt/wonderful/toolchain/gcc-arm-none-eabi/lib/gcc/arm-none-eabi/14.2.0/../../../../arm-none-eabi/lib/thumb/arm946e-s/libc.a(libc_tinystdio_exchange.c.o)
 .debug_rnglists
                0x0000093c       0x14 /opt/wonderful/toolchain/gcc-arm-none-eabi/lib/gcc/arm-none-eabi/14.2.0/../../../../arm-none-eabi/lib/thumb/arm946e-s/libc.a(libc_tinystdio_fdopen.c.o)
 .debug_rnglists
                0x00000950       0x13 /opt/wonderful/toolchain/gcc-arm-none-eabi/lib/gcc/arm-none-eabi/14.2.0/../../../../arm-none-eabi/lib/thumb/arm946e-s/libc.a(libc_tinystdio_fopen.c.o)
 .debug_rnglists
                0x00000963       0x13 /opt/wonderful/toolchain/gcc-arm-none-eabi/lib/gcc/arm-none-eabi/14.2.0/../../../../arm-none-eabi/lib/thumb/arm946e-s/libc.a(memmove.c.o)
 .debug_rnglists
                0x00000976       0x13 /opt/wonderful/toolchain/gcc-arm-none-eabi/lib/gcc/arm-none-eabi/14.2.0/../../../../arm-none-eabi/lib/thumb/arm946e-s/libc.a(libc_misc_fini.c.o)
 .debug_rnglists
                0x00000989       0x13 /opt/wonderful/toolchain/gcc-arm-none-eabi/lib/gcc/arm-none-eabi/14.2.0/../../../../arm-none-eabi/lib/thumb/arm946e-s/libc.a(libc_stdlib_getenv.c.o)
 .debug_rnglists
                0x0000099c       0x13 /opt/wonderful/toolchain/gcc-arm-none-eabi/lib/gcc/arm-none-eabi/14.2.0/../../../../arm-none-eabi/lib/thumb/arm946e-s/libc.a(libc_stdlib_getenv_r.c.o)
 .debug_rnglists
                0x000009af       0x13 /opt/wonderful/toolchain/gcc-arm-none-eabi/lib/gcc/arm-none-eabi/14.2.0/../../../../arm-none-eabi/lib/thumb/arm946e-s/libc.a(libc_string_strnlen.c.o)
 .debug_rnglists
                0x000009c2       0x13 /opt/wonderful/toolchain/gcc-arm-none-eabi/lib/gcc/arm-none-eabi/14.2.0/../../../../arm-none-eabi/lib/thumb/arm946e-s/libc.a(libc_time_gettzinfo.c.o)
 .debug_rnglists
                0x000009d5       0x20 /opt/wonderful/toolchain/gcc-arm-none-eabi/lib/gcc/arm-none-eabi/14.2.0/../../../../arm-none-eabi/lib/thumb/arm946e-s/libc.a(libc_time_gmtime_r.c.o)
 .debug_rnglists
                0x000009f5       0x13 /opt/wonderful/toolchain/gcc-arm-none-eabi/lib/gcc/arm-none-eabi/14.2.0/../../../../arm-none-eabi/lib/thumb/arm946e-s/libc.a(libc_tinystdio_atomic_load.c.o)
 .debug_rnglists
                0x00000a08       0xc6 /opt/wonderful/toolchain/gcc-arm-none-eabi/lib/gcc/arm-none-eabi/14.2.0/../../../../arm-none-eabi/lib/thumb/arm946e-s/libc.a(libc_tinystdio_bufio.c.o)
 .debug_rnglists
                0x00000ace       0x2f /opt/wonderful/toolchain/gcc-arm-none-eabi/lib/gcc/arm-none-eabi/14.2.0/../../../../arm-none-eabi/lib/thumb/arm946e-s/libc.a(libc_tinystdio_dtox_engine.c.o)
 .debug_rnglists
                0x00000afd       0x13 /opt/wonderful/toolchain/gcc-arm-none-eabi/lib/gcc/arm-none-eabi/14.2.0/../../../../arm-none-eabi/lib/thumb/arm946e-s/libc.a(libc_tinystdio_fgetc.c.o)
 .debug_rnglists
                0x00000b10       0x13 /opt/wonderful/toolchain/gcc-arm-none-eabi/lib/gcc/arm-none-eabi/14.2.0/../../../../arm-none-eabi/lib/thumb/arm946e-s/libc.a(libc_tinystdio_filestrget.c.o)
 .debug_rnglists
                0x00000b23       0x13 /opt/wonderful/toolchain/gcc-arm-none-eabi/lib/gcc/arm-none-eabi/14.2.0/../../../../arm-none-eabi/lib/thumb/arm946e-s/libc.a(libc_tinystdio_filestrput.c.o)
 .debug_rnglists
                0x00000b36       0x13 /opt/wonderful/toolchain/gcc-arm-none-eabi/lib/gcc/arm-none-eabi/14.2.0/../../../../arm-none-eabi/lib/thumb/arm946e-s/libc.a(libc_tinystdio_fputc.c.o)
 .debug_rnglists
                0x00000b49       0x13 /opt/wonderful/toolchain/gcc-arm-none-eabi/lib/gcc/arm-none-eabi/14.2.0/../../../../arm-none-eabi/lib/thumb/arm946e-s/libc.a(libc_tinystdio_fseeko.c.o)
 .debug_rnglists
                0x00000b5c       0x13 /opt/wonderful/toolchain/gcc-arm-none-eabi/lib/gcc/arm-none-eabi/14.2.0/../../../../arm-none-eabi/lib/thumb/arm946e-s/libc.a(libc_tinystdio_sflags.c.o)
 .debug_rnglists
                0x00000b6f       0x13 /opt/wonderful/toolchain/gcc-arm-none-eabi/lib/gcc/arm-none-eabi/14.2.0/../../../../arm-none-eabi/lib/thumb/arm946e-s/libc.a(libc_tinystdio_ungetc.c.o)
 .debug_rnglists
                0x00000b82       0x22 /opt/wonderful/toolchain/gcc-arm-none-eabi/lib/gcc/arm-none-eabi/14.2.0/../../../../arm-none-eabi/lib/thumb/arm946e-s/libc.a(libc_tinystdio_compare_exchange.c.o)
 .debug_rnglists
                0x00000ba4       0x1f /opt/wonderful/toolchain/gcc-arm-none-eabi/lib/gcc/arm-none-eabi/14.2.0/thumb/arm946e-s/libgcc.a(_muldi3.o)

.debug_str_offsets
 *(.debug_str_offsets)

.debug_sup
 *(.debug_sup)

.ARM.attributes
                0x00000000       0x31
 *(.ARM.attributes)
 .ARM.attributes
                0x00000000       0x21 /opt/blocksds/core/sys/crts/ds_arm9_crt0.o
 .ARM.attributes
                0x00000021       0x2b build/test_repository/source/player/player.c.o
 .ARM.attributes
                0x0000004c       0x2b build/test_repository/source/main.c.o
 .ARM.attributes
                0x00000077       0x2b /opt/blocksds/external/nflib/lib/libnflib.a(nf_basic.c.o)
 .ARM.attributes
                0x000000a2       0x2b /opt/blocksds/external/nflib/lib/libnflib.a(nf_collision.c.o)
 .ARM.attributes
                0x000000cd       0x2b /opt/blocksds/external/nflib/lib/libnflib.a(nf_text.c.o)
 .ARM.attributes
                0x000000f8       0x2b /opt/blocksds/external/nflib/lib/libnflib.a(nf_tiledbg.c.o)
 .ARM.attributes
                0x00000123       0x2b /opt/blocksds/external/nflib/lib/libnflib.a(nf_2d.c.o)
 .ARM.attributes
                0x0000014e       0x2b /opt/blocksds/external/nflib/lib/libnflib.a(nf_sprite256.c.o)
 .ARM.attributes
                0x00000179       0x21 /opt/blocksds/core/libs/libnds/lib/libnds9.a(IntrWait.s.o)
 .ARM.attributes
                0x0000019a       0x21 /opt/blocksds/core/libs/libnds/lib/libnds9.a(mpu_setup.s.o)
 .ARM.attributes
                0x000001bb       0x21 /opt/blocksds/core/libs/libnds/lib/libnds9.a(cp15.s.o)
 .ARM.attributes
                0x000001dc       0x1b /opt/blocksds/core/libs/libnds/lib/libnds9.a(dma.s.o)
 .ARM.attributes
                0x000001f7       0x1b /opt/blocksds/core/libs/libnds/lib/libnds9.a(memset.s.o)
 .ARM.attributes
                0x00000212       0x1b /opt/blocksds/core/libs/libnds/lib/libnds9.a(memcpy.s.o)
 .ARM.attributes
                0x0000022d       0x2b /opt/blocksds/core/libs/libnds/lib/libnds9.a(console.c.o)
 .ARM.attributes
                0x00000258       0x2b /opt/blocksds/core/libs/libnds/lib/libnds9.a(background.c.o)
 .ARM.attributes
                0x00000283       0x2b /opt/blocksds/core/libs/libnds/lib/libnds9.a(sprite.c.o)
 .ARM.attributes
                0x000002ae       0x2b /opt/blocksds/core/libs/libnds/lib/libnds9.a(video.c.o)
 .ARM.attributes
                0x000002d9       0x2b /opt/blocksds/core/libs/libnds/lib/libnds9.a(cache.c.o)
 .ARM.attributes
                0x00000304       0x2b /opt/blocksds/core/libs/libnds/lib/libnds9.a(initSystem.c.o)
 .ARM.attributes
                0x0000032f       0x2b /opt/blocksds/core/libs/libnds/lib/libnds9.a(keys.c.o)
 .ARM.attributes
                0x0000035a       0x2b /opt/blocksds/core/libs/libnds/lib/libnds9.a(system.c.o)
 .ARM.attributes
                0x00000385       0x2b /opt/blocksds/core/libs/libnds/lib/libnds9.a(securearea.c.o)
 .ARM.attributes
                0x000003b0       0x2b /opt/blocksds/core/libs/libnds/lib/libnds9.a(exceptions.c.o)
 .ARM.attributes
                0x000003db       0x2b /opt/blocksds/core/libs/libnds/lib/libnds9.a(chdir.c.o)
 .ARM.attributes
                0x00000406       0x2b /opt/blocksds/core/libs/libnds/lib/libnds9.a(nitrofs.c.o)
 .ARM.attributes
                0x00000431       0x2b /opt/blocksds/core/libs/libnds/lib/libnds9.a(iob.c.o)
 .ARM.attributes
                0x0000045c       0x2b /opt/blocksds/core/libs/libnds/lib/libnds9.a(fatfs.c.o)
 .ARM.attributes
                0x00000487       0x2b /opt/blocksds/core/libs/libnds/lib/libnds9.a(crt0_argv.c.o)
 .ARM.attributes
                0x000004b2       0x2b /opt/blocksds/core/libs/libnds/lib/libnds9.a(filesystem.c.o)
 .ARM.attributes
                0x000004dd       0x2b /opt/blocksds/core/libs/libnds/lib/libnds9.a(cache.c.o)
 .ARM.attributes
                0x00000508       0x2b /opt/blocksds/core/libs/libnds/lib/libnds9.a(debugprint.c.o)
 .ARM.attributes
                0x00000533       0x2b /opt/blocksds/core/libs/libnds/lib/libnds9.a(threads.c.o)
 .ARM.attributes
                0x0000055e       0x2b /opt/blocksds/core/libs/libnds/lib/libnds9.a(interrupts.c.o)
 .ARM.attributes
                0x00000589       0x2b /opt/blocksds/core/libs/libnds/lib/libnds9.a(exceptions.c.o)
 .ARM.attributes
                0x000005b4       0x2b /opt/blocksds/core/libs/libnds/lib/libnds9.a(coroutine.c.o)
 .ARM.attributes
                0x000005df       0x2b /opt/blocksds/core/libs/libnds/lib/libnds9.a(card.c.o)
 .ARM.attributes
                0x0000060a       0x2b /opt/blocksds/core/libs/libnds/lib/libnds9.a(exit.c.o)
 .ARM.attributes
                0x00000635       0x2b /opt/blocksds/core/libs/libnds/lib/libnds9.a(locks.c.o)
 .ARM.attributes
                0x00000660       0x2b /opt/blocksds/core/libs/libnds/lib/libnds9.a(sbrk.c.o)
 .ARM.attributes
                0x0000068b       0x2b /opt/blocksds/core/libs/libnds/lib/libnds9.a(fifosystem.c.o)
 .ARM.attributes
                0x000006b6       0x2b /opt/blocksds/core/libs/libnds/lib/libnds9.a(ff.c.o)
 .ARM.attributes
                0x000006e1       0x2b /opt/blocksds/core/libs/libnds/lib/libnds9.a(ffunicode.c.o)
 .ARM.attributes
                0x0000070c       0x2b /opt/blocksds/core/libs/libnds/lib/libnds9.a(default_font.png.o)
 .ARM.attributes
                0x00000737       0x21 /opt/blocksds/core/libs/libnds/lib/libnds9.a(cpu_clock.s.o)
 .ARM.attributes
                0x00000758       0x1b /opt/blocksds/core/libs/libnds/lib/libnds9.a(debugprint.s.o)
 .ARM.attributes
                0x00000773       0x1b /opt/blocksds/core/libs/libnds/lib/libnds9.a(aeabi_read_tp.s.o)
 .ARM.attributes
                0x0000078e       0x1b /opt/blocksds/core/libs/libnds/lib/libnds9.a(interruptDispatcher.s.o)
 .ARM.attributes
                0x000007a9       0x1b /opt/blocksds/core/libs/libnds/lib/libnds9.a(cpu.s.o)
 .ARM.attributes
                0x000007c4       0x21 /opt/blocksds/core/libs/libnds/lib/libnds9.a(exceptionHandler.s.o)
 .ARM.attributes
                0x000007e5       0x1b /opt/blocksds/core/libs/libnds/lib/libnds9.a(coroutine.s.o)
 .ARM.attributes
                0x00000800       0x2b /opt/blocksds/core/libs/libnds/lib/libnds9.a(card.c.o)
 .ARM.attributes
                0x0000082b       0x2b /opt/blocksds/core/libs/libnds/lib/libnds9.a(dldi.c.o)
 .ARM.attributes
                0x00000856       0x2b /opt/blocksds/core/libs/libnds/lib/libnds9.a(keyboard.c.o)
 .ARM.attributes
                0x00000881       0x2b /opt/blocksds/core/libs/libnds/lib/libnds9.a(trig.c.o)
 .ARM.attributes
                0x000008ac       0x2b /opt/blocksds/core/libs/libnds/lib/libnds9.a(sprite_alloc.c.o)
 .ARM.attributes
                0x000008d7       0x2b /opt/blocksds/core/libs/libnds/lib/libnds9.a(ffsystem.c.o)
 .ARM.attributes
                0x00000902       0x2b /opt/blocksds/core/libs/libnds/lib/libnds9.a(diskio.c.o)
 .ARM.attributes
                0x0000092d       0x2b /opt/blocksds/core/libs/libnds/lib/libnds9.a(decompress.c.o)
 .ARM.attributes
                0x00000958       0x2b /opt/blocksds/core/libs/libnds/lib/libnds9.a(keyboardGfx.png.o)
 .ARM.attributes
                0x00000983       0x1b /opt/blocksds/core/libs/libnds/lib/libnds9.a(dldi_stub.s.o)
 .ARM.attributes
                0x0000099e       0x2b /opt/blocksds/core/libs/libnds/lib/libnds9.a(sdmmc.twl.c.o)
 .ARM.attributes
                0x000009c9       0x2b /opt/blocksds/core/libs/libnds/lib/libnds9.a(syscalls.c.o)
 .ARM.attributes
                0x000009f4       0x1c /opt/wonderful/toolchain/gcc-arm-none-eabi/lib/gcc/arm-none-eabi/14.2.0/../../../../arm-none-eabi/lib/thumb/arm946e-s/libc.a(strcmp.S.o)
 .ARM.attributes
                0x00000a10       0x1b /opt/wonderful/toolchain/gcc-arm-none-eabi/lib/gcc/arm-none-eabi/14.2.0/../../../../arm-none-eabi/lib/thumb/arm946e-s/libc.a(strcpy.S.o)
 .ARM.attributes
                0x00000a2b       0x1c /opt/wonderful/toolchain/gcc-arm-none-eabi/lib/gcc/arm-none-eabi/14.2.0/../../../../arm-none-eabi/lib/thumb/arm946e-s/libc.a(strlen.S.o)
 .ARM.attributes
                0x00000a47       0x2f /opt/wonderful/toolchain/gcc-arm-none-eabi/lib/gcc/arm-none-eabi/14.2.0/../../../../arm-none-eabi/lib/thumb/arm946e-s/libc.a(malloc-calloc.c.o)
 .ARM.attributes
                0x00000a76       0x2f /opt/wonderful/toolchain/gcc-arm-none-eabi/lib/gcc/arm-none-eabi/14.2.0/../../../../arm-none-eabi/lib/thumb/arm946e-s/libc.a(malloc-free.c.o)
 .ARM.attributes
                0x00000aa5       0x2f /opt/wonderful/toolchain/gcc-arm-none-eabi/lib/gcc/arm-none-eabi/14.2.0/../../../../arm-none-eabi/lib/thumb/arm946e-s/libc.a(malloc-malloc.c.o)
 .ARM.attributes
                0x00000ad4       0x2f /opt/wonderful/toolchain/gcc-arm-none-eabi/lib/gcc/arm-none-eabi/14.2.0/../../../../arm-none-eabi/lib/thumb/arm946e-s/libc.a(malloc-memalign.c.o)
 .ARM.attributes
                0x00000b03       0x2f /opt/wonderful/toolchain/gcc-arm-none-eabi/lib/gcc/arm-none-eabi/14.2.0/../../../../arm-none-eabi/lib/thumb/arm946e-s/libc.a(malloc-realloc.c.o)
 .ARM.attributes
                0x00000b32       0x2f /opt/wonderful/toolchain/gcc-arm-none-eabi/lib/gcc/arm-none-eabi/14.2.0/../../../../arm-none-eabi/lib/thumb/arm946e-s/libc.a(libc_errno_errno.c.o)
 .ARM.attributes
                0x00000b61       0x2f /opt/wonderful/toolchain/gcc-arm-none-eabi/lib/gcc/arm-none-eabi/14.2.0/../../../../arm-none-eabi/lib/thumb/arm946e-s/libc.a(libc_misc_init.c.o)
 .ARM.attributes
                0x00000b90       0x2f /opt/wonderful/toolchain/gcc-arm-none-eabi/lib/gcc/arm-none-eabi/14.2.0/../../../../arm-none-eabi/lib/thumb/arm946e-s/libc.a(libc_search_bsearch.c.o)
 .ARM.attributes
                0x00000bbf       0x2f /opt/wonderful/toolchain/gcc-arm-none-eabi/lib/gcc/arm-none-eabi/14.2.0/../../../../arm-none-eabi/lib/thumb/arm946e-s/libc.a(libc_stdlib_pico-exit.c.o)
 .ARM.attributes
                0x00000bee       0x2f /opt/wonderful/toolchain/gcc-arm-none-eabi/lib/gcc/arm-none-eabi/14.2.0/../../../../arm-none-eabi/lib/thumb/arm946e-s/libc.a(libc_string_memcmp.c.o)
 .ARM.attributes
                0x00000c1d       0x2f /opt/wonderful/toolchain/gcc-arm-none-eabi/lib/gcc/arm-none-eabi/14.2.0/../../../../arm-none-eabi/lib/thumb/arm946e-s/libc.a(libc_string_strchr.c.o)
 .ARM.attributes
                0x00000c4c       0x2f /opt/wonderful/toolchain/gcc-arm-none-eabi/lib/gcc/arm-none-eabi/14.2.0/../../../../arm-none-eabi/lib/thumb/arm946e-s/libc.a(libc_string_strdup.c.o)
 .ARM.attributes
                0x00000c7b       0x2f /opt/wonderful/toolchain/gcc-arm-none-eabi/lib/gcc/arm-none-eabi/14.2.0/../../../../arm-none-eabi/lib/thumb/arm946e-s/libc.a(libc_string_strncmp.c.o)
 .ARM.attributes
                0x00000caa       0x2f /opt/wonderful/toolchain/gcc-arm-none-eabi/lib/gcc/arm-none-eabi/14.2.0/../../../../arm-none-eabi/lib/thumb/arm946e-s/libc.a(libc_string_strncpy.c.o)
 .ARM.attributes
                0x00000cd9       0x2f /opt/wonderful/toolchain/gcc-arm-none-eabi/lib/gcc/arm-none-eabi/14.2.0/../../../../arm-none-eabi/lib/thumb/arm946e-s/libc.a(libc_string_strstr.c.o)
 .ARM.attributes
                0x00000d08       0x2f /opt/wonderful/toolchain/gcc-arm-none-eabi/lib/gcc/arm-none-eabi/14.2.0/../../../../arm-none-eabi/lib/thumb/arm946e-s/libc.a(libc_time_lcltime.c.o)
 .ARM.attributes
                0x00000d37       0x2f /opt/wonderful/toolchain/gcc-arm-none-eabi/lib/gcc/arm-none-eabi/14.2.0/../../../../arm-none-eabi/lib/thumb/arm946e-s/libc.a(libc_time_lcltime_r.c.o)
 .ARM.attributes
                0x00000d66       0x2f /opt/wonderful/toolchain/gcc-arm-none-eabi/lib/gcc/arm-none-eabi/14.2.0/../../../../arm-none-eabi/lib/thumb/arm946e-s/libc.a(libc_time_lcltime_buf.c.o)
 .ARM.attributes
                0x00000d95       0x2f /opt/wonderful/toolchain/gcc-arm-none-eabi/lib/gcc/arm-none-eabi/14.2.0/../../../../arm-none-eabi/lib/thumb/arm946e-s/libc.a(libc_time_mktime.c.o)
 .ARM.attributes
                0x00000dc4       0x2f /opt/wonderful/toolchain/gcc-arm-none-eabi/lib/gcc/arm-none-eabi/14.2.0/../../../../arm-none-eabi/lib/thumb/arm946e-s/libc.a(libc_time_month_lengths.c.o)
 .ARM.attributes
                0x00000df3       0x2f /opt/wonderful/toolchain/gcc-arm-none-eabi/lib/gcc/arm-none-eabi/14.2.0/../../../../arm-none-eabi/lib/thumb/arm946e-s/libc.a(libc_time_time.c.o)
 .ARM.attributes
                0x00000e22       0x2f /opt/wonderful/toolchain/gcc-arm-none-eabi/lib/gcc/arm-none-eabi/14.2.0/../../../../arm-none-eabi/lib/thumb/arm946e-s/libc.a(libc_time_tzcalc_limits.c.o)
 .ARM.attributes
                0x00000e51       0x2f /opt/wonderful/toolchain/gcc-arm-none-eabi/lib/gcc/arm-none-eabi/14.2.0/../../../../arm-none-eabi/lib/thumb/arm946e-s/libc.a(libc_time_tzset.c.o)
 .ARM.attributes
                0x00000e80       0x2f /opt/wonderful/toolchain/gcc-arm-none-eabi/lib/gcc/arm-none-eabi/14.2.0/../../../../arm-none-eabi/lib/thumb/arm946e-s/libc.a(libc_time_tzvars.c.o)
 .ARM.attributes
                0x00000eaf       0x2f /opt/wonderful/toolchain/gcc-arm-none-eabi/lib/gcc/arm-none-eabi/14.2.0/../../../../arm-none-eabi/lib/thumb/arm946e-s/libc.a(libc_tinystdio_fclose.c.o)
 .ARM.attributes
                0x00000ede       0x2f /opt/wonderful/toolchain/gcc-arm-none-eabi/lib/gcc/arm-none-eabi/14.2.0/../../../../arm-none-eabi/lib/thumb/arm946e-s/libc.a(libc_tinystdio_fflush.c.o)
 .ARM.attributes
                0x00000f0d       0x2f /opt/wonderful/toolchain/gcc-arm-none-eabi/lib/gcc/arm-none-eabi/14.2.0/../../../../arm-none-eabi/lib/thumb/arm946e-s/libc.a(libc_tinystdio_fileno.c.o)
 .ARM.attributes
                0x00000f3c       0x2f /opt/wonderful/toolchain/gcc-arm-none-eabi/lib/gcc/arm-none-eabi/14.2.0/../../../../arm-none-eabi/lib/thumb/arm946e-s/libc.a(libc_tinystdio_fread.c.o)
 .ARM.attributes
                0x00000f6b       0x2f /opt/wonderful/toolchain/gcc-arm-none-eabi/lib/gcc/arm-none-eabi/14.2.0/../../../../arm-none-eabi/lib/thumb/arm946e-s/libc.a(libc_tinystdio_fseek.c.o)
 .ARM.attributes
                0x00000f9a       0x2f /opt/wonderful/toolchain/gcc-arm-none-eabi/lib/gcc/arm-none-eabi/14.2.0/../../../../arm-none-eabi/lib/thumb/arm946e-s/libc.a(libc_tinystdio_ftell.c.o)
 .ARM.attributes
                0x00000fc9       0x2f /opt/wonderful/toolchain/gcc-arm-none-eabi/lib/gcc/arm-none-eabi/14.2.0/../../../../arm-none-eabi/lib/thumb/arm946e-s/libc.a(libc_tinystdio_printf.c.o)
 .ARM.attributes
                0x00000ff8       0x2f /opt/wonderful/toolchain/gcc-arm-none-eabi/lib/gcc/arm-none-eabi/14.2.0/../../../../arm-none-eabi/lib/thumb/arm946e-s/libc.a(libc_tinystdio_putchar.c.o)
 .ARM.attributes
                0x00001027       0x2f /opt/wonderful/toolchain/gcc-arm-none-eabi/lib/gcc/arm-none-eabi/14.2.0/../../../../arm-none-eabi/lib/thumb/arm946e-s/libc.a(libc_tinystdio_puts.c.o)
 .ARM.attributes
                0x00001056       0x2f /opt/wonderful/toolchain/gcc-arm-none-eabi/lib/gcc/arm-none-eabi/14.2.0/../../../../arm-none-eabi/lib/thumb/arm946e-s/libc.a(libc_tinystdio_rewind.c.o)
 .ARM.attributes
                0x00001085       0x2f /opt/wonderful/toolchain/gcc-arm-none-eabi/lib/gcc/arm-none-eabi/14.2.0/../../../../arm-none-eabi/lib/thumb/arm946e-s/libc.a(libc_tinystdio_setvbuf.c.o)
 .ARM.attributes
                0x000010b4       0x2f /opt/wonderful/toolchain/gcc-arm-none-eabi/lib/gcc/arm-none-eabi/14.2.0/../../../../arm-none-eabi/lib/thumb/arm946e-s/libc.a(libc_tinystdio_snprintf.c.o)
 .ARM.attributes
                0x000010e3       0x2f /opt/wonderful/toolchain/gcc-arm-none-eabi/lib/gcc/arm-none-eabi/14.2.0/../../../../arm-none-eabi/lib/thumb/arm946e-s/libc.a(libc_tinystdio_sscanf.c.o)
 .ARM.attributes
                0x00001112       0x2f /opt/wonderful/toolchain/gcc-arm-none-eabi/lib/gcc/arm-none-eabi/14.2.0/../../../../arm-none-eabi/lib/thumb/arm946e-s/libc.a(libc_tinystdio_strtoul.c.o)
 .ARM.attributes
                0x00001141       0x2f /opt/wonderful/toolchain/gcc-arm-none-eabi/lib/gcc/arm-none-eabi/14.2.0/../../../../arm-none-eabi/lib/thumb/arm946e-s/libc.a(libc_tinystdio_vfprintf.c.o)
 .ARM.attributes
                0x00001170       0x2f /opt/wonderful/toolchain/gcc-arm-none-eabi/lib/gcc/arm-none-eabi/14.2.0/../../../../arm-none-eabi/lib/thumb/arm946e-s/libc.a(libc_tinystdio_vfscanf.c.o)
 .ARM.attributes
                0x0000119f       0x2f /opt/wonderful/toolchain/gcc-arm-none-eabi/lib/gcc/arm-none-eabi/14.2.0/../../../../arm-none-eabi/lib/thumb/arm946e-s/libc.a(libc_tinystdio_atod_ryu.c.o)
 .ARM.attributes
                0x000011ce       0x2f /opt/wonderful/toolchain/gcc-arm-none-eabi/lib/gcc/arm-none-eabi/14.2.0/../../../../arm-none-eabi/lib/thumb/arm946e-s/libc.a(libc_tinystdio_atof_ryu.c.o)
 .ARM.attributes
                0x000011fd       0x2f /opt/wonderful/toolchain/gcc-arm-none-eabi/lib/gcc/arm-none-eabi/14.2.0/../../../../arm-none-eabi/lib/thumb/arm946e-s/libc.a(libc_tinystdio_dtoa_ryu.c.o)
 .ARM.attributes
                0x0000122c       0x2f /opt/wonderful/toolchain/gcc-arm-none-eabi/lib/gcc/arm-none-eabi/14.2.0/../../../../arm-none-eabi/lib/thumb/arm946e-s/libc.a(libc_tinystdio_ryu_divpow2.c.o)
 .ARM.attributes
                0x0000125b       0x2f /opt/wonderful/toolchain/gcc-arm-none-eabi/lib/gcc/arm-none-eabi/14.2.0/../../../../arm-none-eabi/lib/thumb/arm946e-s/libc.a(libc_tinystdio_ryu_log10.c.o)
 .ARM.attributes
                0x0000128a       0x2f /opt/wonderful/toolchain/gcc-arm-none-eabi/lib/gcc/arm-none-eabi/14.2.0/../../../../arm-none-eabi/lib/thumb/arm946e-s/libc.a(libc_tinystdio_ryu_log2pow5.c.o)
 .ARM.attributes
                0x000012b9       0x2f /opt/wonderful/toolchain/gcc-arm-none-eabi/lib/gcc/arm-none-eabi/14.2.0/../../../../arm-none-eabi/lib/thumb/arm946e-s/libc.a(libc_tinystdio_ryu_pow5bits.c.o)
 .ARM.attributes
                0x000012e8       0x2f /opt/wonderful/toolchain/gcc-arm-none-eabi/lib/gcc/arm-none-eabi/14.2.0/../../../../arm-none-eabi/lib/thumb/arm946e-s/libc.a(libc_tinystdio_ryu_table.c.o)
 .ARM.attributes
                0x00001317       0x2f /opt/wonderful/toolchain/gcc-arm-none-eabi/lib/gcc/arm-none-eabi/14.2.0/../../../../arm-none-eabi/lib/thumb/arm946e-s/libc.a(libc_tinystdio_ryu_umul128.c.o)
 .ARM.attributes
                0x00001346       0x2f /opt/wonderful/toolchain/gcc-arm-none-eabi/lib/gcc/arm-none-eabi/14.2.0/../../../../arm-none-eabi/lib/thumb/arm946e-s/libc.a(libc_tinystdio_exchange.c.o)
 .ARM.attributes
                0x00001375       0x2f /opt/wonderful/toolchain/gcc-arm-none-eabi/lib/gcc/arm-none-eabi/14.2.0/../../../../arm-none-eabi/lib/thumb/arm946e-s/libc.a(libc_tinystdio_fdopen.c.o)
 .ARM.attributes
                0x000013a4       0x2f /opt/wonderful/toolchain/gcc-arm-none-eabi/lib/gcc/arm-none-eabi/14.2.0/../../../../arm-none-eabi/lib/thumb/arm946e-s/libc.a(libc_tinystdio_fopen.c.o)
 .ARM.attributes
                0x000013d3       0x2f /opt/wonderful/toolchain/gcc-arm-none-eabi/lib/gcc/arm-none-eabi/14.2.0/../../../../arm-none-eabi/lib/thumb/arm946e-s/libc.a(memmove.c.o)
 .ARM.attributes
                0x00001402       0x2f /opt/wonderful/toolchain/gcc-arm-none-eabi/lib/gcc/arm-none-eabi/14.2.0/../../../../arm-none-eabi/lib/thumb/arm946e-s/libc.a(libc_misc_fini.c.o)
 .ARM.attributes
                0x00001431       0x2f /opt/wonderful/toolchain/gcc-arm-none-eabi/lib/gcc/arm-none-eabi/14.2.0/../../../../arm-none-eabi/lib/thumb/arm946e-s/libc.a(libc_stdlib_div.c.o)
 .ARM.attributes
                0x00001460       0x2f /opt/wonderful/toolchain/gcc-arm-none-eabi/lib/gcc/arm-none-eabi/14.2.0/../../../../arm-none-eabi/lib/thumb/arm946e-s/libc.a(libc_stdlib_getenv.c.o)
 .ARM.attributes
                0x0000148f       0x2f /opt/wonderful/toolchain/gcc-arm-none-eabi/lib/gcc/arm-none-eabi/14.2.0/../../../../arm-none-eabi/lib/thumb/arm946e-s/libc.a(libc_stdlib_getenv_r.c.o)
 .ARM.attributes
                0x000014be       0x2f /opt/wonderful/toolchain/gcc-arm-none-eabi/lib/gcc/arm-none-eabi/14.2.0/../../../../arm-none-eabi/lib/thumb/arm946e-s/libc.a(libc_string_strnlen.c.o)
 .ARM.attributes
                0x000014ed       0x2f /opt/wonderful/toolchain/gcc-arm-none-eabi/lib/gcc/arm-none-eabi/14.2.0/../../../../arm-none-eabi/lib/thumb/arm946e-s/libc.a(libc_time_gettzinfo.c.o)
 .ARM.attributes
                0x0000151c       0x2f /opt/wonderful/toolchain/gcc-arm-none-eabi/lib/gcc/arm-none-eabi/14.2.0/../../../../arm-none-eabi/lib/thumb/arm946e-s/libc.a(libc_time_gmtime_r.c.o)
 .ARM.attributes
                0x0000154b       0x2f /opt/wonderful/toolchain/gcc-arm-none-eabi/lib/gcc/arm-none-eabi/14.2.0/../../../../arm-none-eabi/lib/thumb/arm946e-s/libc.a(libc_tinystdio_atomic_load.c.o)
 .ARM.attributes
                0x0000157a       0x2f /opt/wonderful/toolchain/gcc-arm-none-eabi/lib/gcc/arm-none-eabi/14.2.0/../../../../arm-none-eabi/lib/thumb/arm946e-s/libc.a(libc_tinystdio_bufio.c.o)
 .ARM.attributes
                0x000015a9       0x2f /opt/wonderful/toolchain/gcc-arm-none-eabi/lib/gcc/arm-none-eabi/14.2.0/../../../../arm-none-eabi/lib/thumb/arm946e-s/libc.a(libc_tinystdio_dtox_engine.c.o)
 .ARM.attributes
                0x000015d8       0x2f /opt/wonderful/toolchain/gcc-arm-none-eabi/lib/gcc/arm-none-eabi/14.2.0/../../../../arm-none-eabi/lib/thumb/arm946e-s/libc.a(libc_tinystdio_fgetc.c.o)
 .ARM.attributes
                0x00001607       0x2f /opt/wonderful/toolchain/gcc-arm-none-eabi/lib/gcc/arm-none-eabi/14.2.0/../../../../arm-none-eabi/lib/thumb/arm946e-s/libc.a(libc_tinystdio_filestrget.c.o)
 .ARM.attributes
                0x00001636       0x2f /opt/wonderful/toolchain/gcc-arm-none-eabi/lib/gcc/arm-none-eabi/14.2.0/../../../../arm-none-eabi/lib/thumb/arm946e-s/libc.a(libc_tinystdio_filestrput.c.o)
 .ARM.attributes
                0x00001665       0x2f /opt/wonderful/toolchain/gcc-arm-none-eabi/lib/gcc/arm-none-eabi/14.2.0/../../../../arm-none-eabi/lib/thumb/arm946e-s/libc.a(libc_tinystdio_fputc.c.o)
 .ARM.attributes
                0x00001694       0x2f /opt/wonderful/toolchain/gcc-arm-none-eabi/lib/gcc/arm-none-eabi/14.2.0/../../../../arm-none-eabi/lib/thumb/arm946e-s/libc.a(libc_tinystdio_fseeko.c.o)
 .ARM.attributes
                0x000016c3       0x2f /opt/wonderful/toolchain/gcc-arm-none-eabi/lib/gcc/arm-none-eabi/14.2.0/../../../../arm-none-eabi/lib/thumb/arm946e-s/libc.a(libc_tinystdio_sflags.c.o)
 .ARM.attributes
                0x000016f2       0x2f /opt/wonderful/toolchain/gcc-arm-none-eabi/lib/gcc/arm-none-eabi/14.2.0/../../../../arm-none-eabi/lib/thumb/arm946e-s/libc.a(libc_tinystdio_ungetc.c.o)
 .ARM.attributes
                0x00001721       0x2f /opt/wonderful/toolchain/gcc-arm-none-eabi/lib/gcc/arm-none-eabi/14.2.0/../../../../arm-none-eabi/lib/thumb/arm946e-s/libc.a(libc_tinystdio_compare_exchange.c.o)
 .ARM.attributes
                0x00001750       0x2f /opt/wonderful/toolchain/gcc-arm-none-eabi/lib/gcc/arm-none-eabi/14.2.0/../../../../arm-none-eabi/lib/thumb/arm946e-s/libc.a(libc_stdlib_environ.c.o)
 .ARM.attributes
                0x0000177f       0x2b /opt/blocksds/core/libs/libnds/lib/libnds9.a(syscalls.c.o)
 .ARM.attributes
                0x000017aa       0x1d /opt/wonderful/toolchain/gcc-arm-none-eabi/lib/gcc/arm-none-eabi/14.2.0/thumb/arm946e-s/libgcc.a(_thumb1_case_uqi.o)
 .ARM.attributes
                0x000017c7       0x1d /opt/wonderful/toolchain/gcc-arm-none-eabi/lib/gcc/arm-none-eabi/14.2.0/thumb/arm946e-s/libgcc.a(_thumb1_case_uhi.o)
 .ARM.attributes
                0x000017e4       0x1d /opt/wonderful/toolchain/gcc-arm-none-eabi/lib/gcc/arm-none-eabi/14.2.0/thumb/arm946e-s/libgcc.a(_udivsi3.o)
 .ARM.attributes
                0x00001801       0x1d /opt/wonderful/toolchain/gcc-arm-none-eabi/lib/gcc/arm-none-eabi/14.2.0/thumb/arm946e-s/libgcc.a(_divsi3.o)
 .ARM.attributes
                0x0000181e       0x1d /opt/wonderful/toolchain/gcc-arm-none-eabi/lib/gcc/arm-none-eabi/14.2.0/thumb/arm946e-s/libgcc.a(_dvmd_tls.o)
 .ARM.attributes
                0x0000183b       0x1d /opt/wonderful/toolchain/gcc-arm-none-eabi/lib/gcc/arm-none-eabi/14.2.0/thumb/arm946e-s/libgcc.a(_lshrdi3.o)
 .ARM.attributes
                0x00001858       0x1d /opt/wonderful/toolchain/gcc-arm-none-eabi/lib/gcc/arm-none-eabi/14.2.0/thumb/arm946e-s/libgcc.a(_ashrdi3.o)
 .ARM.attributes
                0x00001875       0x1d /opt/wonderful/toolchain/gcc-arm-none-eabi/lib/gcc/arm-none-eabi/14.2.0/thumb/arm946e-s/libgcc.a(_ashldi3.o)
 .ARM.attributes
                0x00001892       0x1d /opt/wonderful/toolchain/gcc-arm-none-eabi/lib/gcc/arm-none-eabi/14.2.0/thumb/arm946e-s/libgcc.a(_arm_addsubdf3.o)
 .ARM.attributes
                0x000018af       0x1d /opt/wonderful/toolchain/gcc-arm-none-eabi/lib/gcc/arm-none-eabi/14.2.0/thumb/arm946e-s/libgcc.a(_arm_cmpdf2.o)
 .ARM.attributes
                0x000018cc       0x1d /opt/wonderful/toolchain/gcc-arm-none-eabi/lib/gcc/arm-none-eabi/14.2.0/thumb/arm946e-s/libgcc.a(_arm_truncdfsf2.o)
 .ARM.attributes
                0x000018e9       0x1d /opt/wonderful/toolchain/gcc-arm-none-eabi/lib/gcc/arm-none-eabi/14.2.0/thumb/arm946e-s/libgcc.a(_clzsi2.o)
 .ARM.attributes
                0x00001906       0x1d /opt/wonderful/toolchain/gcc-arm-none-eabi/lib/gcc/arm-none-eabi/14.2.0/thumb/arm946e-s/libgcc.a(_clzdi2.o)
 .ARM.attributes
                0x00001923       0x1d /opt/wonderful/toolchain/gcc-arm-none-eabi/lib/gcc/arm-none-eabi/14.2.0/thumb/arm946e-s/libgcc.a(_aeabi_ldivmod.o)
 .ARM.attributes
                0x00001940       0x1d /opt/wonderful/toolchain/gcc-arm-none-eabi/lib/gcc/arm-none-eabi/14.2.0/thumb/arm946e-s/libgcc.a(_aeabi_uldivmod.o)
 .ARM.attributes
                0x0000195d       0x2b /opt/wonderful/toolchain/gcc-arm-none-eabi/lib/gcc/arm-none-eabi/14.2.0/thumb/arm946e-s/libgcc.a(_muldi3.o)
 .ARM.attributes
                0x00001988       0x2b /opt/wonderful/toolchain/gcc-arm-none-eabi/lib/gcc/arm-none-eabi/14.2.0/thumb/arm946e-s/libgcc.a(_udivmoddi4.o)
 .ARM.attributes
                0x000019b3       0x2b /opt/wonderful/toolchain/gcc-arm-none-eabi/lib/gcc/arm-none-eabi/14.2.0/thumb/arm946e-s/crtend.o
 .ARM.attributes
                0x000019de       0x1d /opt/wonderful/toolchain/gcc-arm-none-eabi/lib/gcc/arm-none-eabi/14.2.0/thumb/arm946e-s/crtn.o
 *(.gnu.attributes)

.note.gnu.arm.ident
 *(.note.gnu.arm.ident)

/DISCARD/
 *(.note.GNU-stack)
 *(.gnu_debuglink)
 *(.gnu.lto_*)
                0x00000001                        ASSERT ((__sbss_end <= __dtcm_data_top), DTCM data overflow; increase __dtcm_data_size or move data out of DTCM)
LOAD /opt/blocksds/core/sys/crts/ds_arm9_crt0.o
LOAD build/test_repository/source/player/player.c.o
LOAD build/test_repository/source/main.c.o
START GROUP
LOAD /opt/blocksds/external/nflib/lib/libnflib.a
LOAD /opt/blocksds/core/libs/dswifi/lib/libdswifi9.a
LOAD /opt/blocksds/core/libs/libnds/lib/libnds9.a
LOAD /opt/wonderful/toolchain/gcc-arm-none-eabi/lib/gcc/arm-none-eabi/14.2.0/../../../../arm-none-eabi/lib/thumb/arm946e-s/libc.a
LOAD /opt/wonderful/toolchain/gcc-arm-none-eabi/lib/gcc/arm-none-eabi/14.2.0/../../../../arm-none-eabi/lib/thumb/arm946e-s/libc.a
END GROUP
START GROUP
LOAD /opt/wonderful/toolchain/gcc-arm-none-eabi/lib/gcc/arm-none-eabi/14.2.0/thumb/arm946e-s/libgcc.a
LOAD /opt/wonderful/toolchain/gcc-arm-none-eabi/lib/gcc/arm-none-eabi/14.2.0/thumb/arm946e-s/libgcc.a
END GROUP
LOAD /opt/wonderful/toolchain/gcc-arm-none-eabi/lib/gcc/arm-none-eabi/14.2.0/thumb/arm946e-s/crtend.o
LOAD /opt/wonderful/toolchain/gcc-arm-none-eabi/lib/gcc/arm-none-eabi/14.2.0/thumb/arm946e-s/crtn.o
OUTPUT(build/test_repository.elf elf32-littlearm)
LOAD linker stubs
